Component: ARM Compiler 5.06 update 7 (build 960) Tool: armlink [4d3601]

==============================================================================

Section Cross References

    main.o(.text) refers to esp8266.o(.text) for ESP8266_Init
    main.o(.text) refers to delay.o(.text) for delay_ms
    main.o(.text) refers to onenet.o(.text) for OneNet_DevLink
    main.o(.text) refers to as608.o(.text) for press_FR
    main.o(.text) refers to lcd.o(.text) for Chinese_Show_two
    main.o(.text) refers to event_groups.o(.text) for xEventGroupSetBits
    main.o(.text) refers to printfa.o(i.__0printf) for __2printf
    main.o(.text) refers to tasks.o(.text) for vTaskSuspend
    main.o(.text) refers to rc522.o(.text) for Identify_CardID
    main.o(.text) refers to printfa.o(i.__0sprintf) for __2sprintf
    main.o(.text) refers to main.o(.data) for topics
    main.o(.text) refers to main.o(.bss) for Pub_Buf
    main.o(.text) refers to sg90.o(.text) for SG90_SetAngle
    main.o(.text) refers to port.o(.text) for vPortEnterCritical
    main.o(.text) refers to misc.o(.text) for NVIC_PriorityGroupConfig
    main.o(.text) refers to usart_1.o(.text) for uart_init
    main.o(.text) refers to led.o(.text) for LED_Init
    main.o(.text) refers to key.o(.text) for KEY_Init
    main.o(.text) refers to beep.o(.text) for BEEP_Init
    main.o(.text) refers to usart2.o(.text) for usart2_init
    main.o(.text) refers to usart3.o(.text) for USART3_Init
    main.o(.text) refers to touch.o(.text) for TP_Adjust
    main.o(.text) refers to touch.o(.data) for tp_dev
    main.o(.text) refers to lcd.o(.data) for POINT_COLOR
    main.o(.data) refers to main.o(.conststring) for .conststring
    stm32f4xx_it.o(.text) refers to stm32f4xx_usart.o(.text) for USART_GetITStatus
    stm32f4xx_it.o(.text) refers to esp8266.o(.data) for esp8266_cnt
    stm32f4xx_it.o(.text) refers to esp8266.o(.bss) for esp8266_buf
    system_stm32f4xx.o(.text) refers to system_stm32f4xx.o(.data) for SystemCoreClock
    startup_stm32f40_41xxx.o(RESET) refers to startup_stm32f40_41xxx.o(STACK) for __initial_sp
    startup_stm32f40_41xxx.o(RESET) refers to startup_stm32f40_41xxx.o(.text) for Reset_Handler
    startup_stm32f40_41xxx.o(RESET) refers to stm32f4xx_it.o(.text) for NMI_Handler
    startup_stm32f40_41xxx.o(RESET) refers to port.o(.emb_text) for SVC_Handler
    startup_stm32f40_41xxx.o(RESET) refers to delay.o(.text) for SysTick_Handler
    startup_stm32f40_41xxx.o(RESET) refers to usart_1.o(.text) for USART1_IRQHandler
    startup_stm32f40_41xxx.o(RESET) refers to usart2.o(.text) for USART2_IRQHandler
    startup_stm32f40_41xxx.o(RESET) refers to timer.o(.text) for TIM7_IRQHandler
    startup_stm32f40_41xxx.o(.text) refers to system_stm32f4xx.o(.text) for SystemInit
    startup_stm32f40_41xxx.o(.text) refers to entry.o(.ARM.Collect$$$$00000000) for __main
    led.o(.text) refers to stm32f4xx_rcc.o(.text) for RCC_AHB1PeriphClockCmd
    led.o(.text) refers to stm32f4xx_gpio.o(.text) for GPIO_Init
    lcd.o(.text) refers to delay.o(.text) for delay_us
    lcd.o(.text) refers to lcd.o(.bss) for lcddev
    lcd.o(.text) refers to lcd.o(.data) for POINT_COLOR
    lcd.o(.text) refers to dfltui.o(.text) for __aeabi_ui2d
    lcd.o(.text) refers to dmul.o(.text) for __aeabi_dmul
    lcd.o(.text) refers to dfixui.o(.text) for __aeabi_d2uiz
    lcd.o(.text) refers to stm32f4xx_rcc.o(.text) for RCC_AHB1PeriphClockCmd
    lcd.o(.text) refers to stm32f4xx_gpio.o(.text) for GPIO_Init
    lcd.o(.text) refers to stm32f4xx_fsmc.o(.text) for FSMC_NORSRAMInit
    lcd.o(.text) refers to printfa.o(i.__0printf) for __2printf
    lcd.o(.text) refers to lcd.o(.constdata) for asc2_1206
    lcd.o(.text) refers to strlen.o(.text) for strlen
    lcd.o(.text) refers to touch.o(.data) for tp_dev
    key.o(.text) refers to stm32f4xx_rcc.o(.text) for RCC_AHB1PeriphClockCmd
    key.o(.text) refers to stm32f4xx_gpio.o(.text) for GPIO_Init
    key.o(.text) refers to delay.o(.text) for delay_ms
    key.o(.text) refers to key.o(.data) for key_up
    myiic.o(.text) refers to stm32f4xx_rcc.o(.text) for RCC_AHB1PeriphClockCmd
    myiic.o(.text) refers to stm32f4xx_gpio.o(.text) for GPIO_Init
    myiic.o(.text) refers to delay.o(.text) for delay_us
    24cxx.o(.text) refers to myiic.o(.text) for IIC_Init
    24cxx.o(.text) refers to delay.o(.text) for delay_ms
    ctiic.o(.text) refers to delay.o(.text) for delay_us
    ctiic.o(.text) refers to stm32f4xx_rcc.o(.text) for RCC_AHB1PeriphClockCmd
    ctiic.o(.text) refers to stm32f4xx_gpio.o(.text) for GPIO_Init
    ft5206.o(.text) refers to ctiic.o(.text) for CT_IIC_Start
    ft5206.o(.text) refers to stm32f4xx_rcc.o(.text) for RCC_AHB1PeriphClockCmd
    ft5206.o(.text) refers to stm32f4xx_gpio.o(.text) for GPIO_Init
    ft5206.o(.text) refers to delay.o(.text) for delay_ms
    ft5206.o(.text) refers to printfa.o(i.__0printf) for __2printf
    ft5206.o(.text) refers to ft5206.o(.data) for t
    ft5206.o(.text) refers to touch.o(.data) for tp_dev
    ft5206.o(.text) refers to ft5206.o(.constdata) for FT5206_TPX_TBL
    gt9147.o(.text) refers to ctiic.o(.text) for CT_IIC_Start
    gt9147.o(.text) refers to stm32f4xx_rcc.o(.text) for RCC_AHB1PeriphClockCmd
    gt9147.o(.text) refers to stm32f4xx_gpio.o(.text) for GPIO_Init
    gt9147.o(.text) refers to delay.o(.text) for delay_ms
    gt9147.o(.text) refers to printfa.o(i.__0printf) for __2printf
    gt9147.o(.text) refers to strcmp.o(.text) for strcmp
    gt9147.o(.text) refers to gt9147.o(.constdata) for GT9147_CFG_TBL
    gt9147.o(.text) refers to gt9147.o(.data) for t
    gt9147.o(.text) refers to touch.o(.data) for tp_dev
    gt9147.o(.text) refers to lcd.o(.bss) for lcddev
    ott2001a.o(.text) refers to ctiic.o(.text) for CT_IIC_Start
    ott2001a.o(.text) refers to stm32f4xx_rcc.o(.text) for RCC_AHB1PeriphClockCmd
    ott2001a.o(.text) refers to stm32f4xx_gpio.o(.text) for GPIO_Init
    ott2001a.o(.text) refers to delay.o(.text) for delay_ms
    ott2001a.o(.text) refers to printfa.o(i.__0printf) for __2printf
    ott2001a.o(.text) refers to dflti.o(.text) for __aeabi_i2d
    ott2001a.o(.text) refers to dmul.o(.text) for __aeabi_dmul
    ott2001a.o(.text) refers to dfixui.o(.text) for __aeabi_d2uiz
    ott2001a.o(.text) refers to dadd.o(.text) for __aeabi_drsub
    ott2001a.o(.text) refers to ott2001a.o(.data) for t
    ott2001a.o(.text) refers to touch.o(.data) for tp_dev
    ott2001a.o(.text) refers to ott2001a.o(.constdata) for OTT_TPX_TBL
    touch.o(.text) refers to delay.o(.text) for delay_us
    touch.o(.text) refers to lcd.o(.text) for LCD_DrawLine
    touch.o(.text) refers to 24cxx.o(.text) for AT24CXX_WriteLenByte
    touch.o(.text) refers to touch.o(.data) for CMD_RDX
    touch.o(.text) refers to lcd.o(.data) for POINT_COLOR
    touch.o(.text) refers to dfltui.o(.text) for __aeabi_ui2d
    touch.o(.text) refers to sqrt.o(i.__hardfp_sqrt) for __hardfp_sqrt
    touch.o(.text) refers to dfixui.o(.text) for __aeabi_d2uiz
    touch.o(.text) refers to lcd.o(.bss) for lcddev
    touch.o(.text) refers to touch.o(.constdata) for TP_REMIND_MSG_TBL
    touch.o(.text) refers to f2d.o(.text) for __aeabi_f2d
    touch.o(.text) refers to cdcmple.o(.text) for __aeabi_cdcmple
    touch.o(.text) refers to cdrcmple.o(.text) for __aeabi_cdrcmple
    touch.o(.text) refers to dmul.o(.text) for __aeabi_dmul
    touch.o(.text) refers to gt9147.o(.text) for GT9147_Init
    touch.o(.text) refers to ott2001a.o(.text) for OTT2001A_Init
    touch.o(.text) refers to ft5206.o(.text) for FT5206_Init
    touch.o(.text) refers to stm32f4xx_rcc.o(.text) for RCC_AHB1PeriphClockCmd
    touch.o(.text) refers to stm32f4xx_gpio.o(.text) for GPIO_Init
    touch.o(.constdata) refers to touch.o(.conststring) for .conststring
    touch.o(.data) refers to touch.o(.text) for TP_Init
    sg90.o(.text) refers to stm32f4xx_tim.o(.text) for TIM_SetCompare1
    sg90.o(.text) refers to stm32f4xx_rcc.o(.text) for RCC_AHB1PeriphClockCmd
    sg90.o(.text) refers to stm32f4xx_gpio.o(.text) for GPIO_PinAFConfig
    beep.o(.text) refers to stm32f4xx_rcc.o(.text) for RCC_AHB1PeriphClockCmd
    beep.o(.text) refers to stm32f4xx_gpio.o(.text) for GPIO_Init
    rc522.o(.text) refers to stm32f4xx_gpio.o(.text) for GPIO_SetBits
    rc522.o(.text) refers to delay.o(.text) for delay_us
    rc522.o(.text) refers to stm32f4xx_rcc.o(.text) for RCC_AHB1PeriphClockCmd
    rc522.o(.text) refers to memcpya.o(.text) for __aeabi_memcpy
    rc522.o(.text) refers to printfa.o(i.__0printf) for __2printf
    rc522.o(.text) refers to rc522.o(.data) for CT
    usart2.o(.text) refers to stm32f4xx_usart.o(.text) for USART_GetITStatus
    usart2.o(.text) refers to stm32f4xx_tim.o(.text) for TIM_SetCounter
    usart2.o(.text) refers to stm32f4xx_rcc.o(.text) for RCC_AHB1PeriphClockCmd
    usart2.o(.text) refers to stm32f4xx_gpio.o(.text) for GPIO_PinAFConfig
    usart2.o(.text) refers to misc.o(.text) for NVIC_Init
    usart2.o(.text) refers to timer.o(.text) for TIM7_Int_Init
    usart2.o(.text) refers to printfa.o(i.__0vsprintf) for vsprintf
    usart2.o(.text) refers to strlen.o(.text) for strlen
    usart2.o(.text) refers to usart2.o(.data) for USART2_RX_STA
    usart2.o(.text) refers to usart2.o(.bss) for USART2_RX_BUF
    timer.o(.text) refers to stm32f4xx_tim.o(.text) for TIM_GetITStatus
    timer.o(.text) refers to stm32f4xx_rcc.o(.text) for RCC_APB1PeriphClockCmd
    timer.o(.text) refers to misc.o(.text) for NVIC_Init
    timer.o(.text) refers to usart2.o(.data) for USART2_RX_STA
    as608.o(.text) refers to delay.o(.text) for delay_ms
    as608.o(.text) refers to strstr.o(.text) for strstr
    as608.o(.text) refers to printfa.o(i.__0printf) for __2printf
    as608.o(.text) refers to as608.o(.data) for AS608Addr
    as608.o(.text) refers to usart2.o(.data) for USART2_RX_STA
    as608.o(.text) refers to usart2.o(.bss) for USART2_RX_BUF
    as608.o(.text) refers to stm32f4xx_rcc.o(.text) for RCC_AHB1PeriphClockCmd
    as608.o(.text) refers to stm32f4xx_gpio.o(.text) for GPIO_Init
    as608.o(.text) refers to as608.o(.bss) for AS608Para
    esp8266.o(.text) refers to memseta.o(.text) for __aeabi_memclr
    esp8266.o(.text) refers to strlen.o(.text) for strlen
    esp8266.o(.text) refers to usart3.o(.text) for Usart_SendString
    esp8266.o(.text) refers to strstr.o(.text) for strstr
    esp8266.o(.text) refers to delay.o(.text) for delay_ms
    esp8266.o(.text) refers to printfa.o(i.__0sprintf) for __2sprintf
    esp8266.o(.text) refers to strchr.o(.text) for strchr
    esp8266.o(.text) refers to printfa.o(i.__0printf) for __2printf
    esp8266.o(.text) refers to esp8266.o(.bss) for esp8266_buf
    esp8266.o(.text) refers to esp8266.o(.data) for esp8266_cnt
    usart3.o(.text) refers to stm32f4xx_rcc.o(.text) for RCC_AHB1PeriphClockCmd
    usart3.o(.text) refers to stm32f4xx_gpio.o(.text) for GPIO_PinAFConfig
    usart3.o(.text) refers to stm32f4xx_usart.o(.text) for USART_Init
    usart3.o(.text) refers to misc.o(.text) for NVIC_Init
    usart3.o(.text) refers to printfa.o(i.__0vsprintf) for vsprintf
    usart3.o(.text) refers to strlen.o(.text) for strlen
    usart3.o(.text) refers to printfa.o(i.__0vsnprintf) for vsnprintf
    usart3.o(.text) refers to usart3.o(.bss) for USART3_TxBuff
    cjson.o(.text) refers to tolower.o(.text) for tolower
    cjson.o(.text) refers to strlen.o(.text) for strlen
    cjson.o(.text) refers to memcpya.o(.text) for __aeabi_memcpy
    cjson.o(.text) refers to memseta.o(.text) for __aeabi_memclr4
    cjson.o(.text) refers to dflti.o(.text) for __aeabi_i2d
    cjson.o(.text) refers to dmul.o(.text) for __aeabi_dmul
    cjson.o(.text) refers to dadd.o(.text) for __aeabi_dadd
    cjson.o(.text) refers to pow.o(i.__hardfp_pow) for __hardfp_pow
    cjson.o(.text) refers to dfixi.o(.text) for __aeabi_d2iz
    cjson.o(.text) refers to cdcmple.o(.text) for __aeabi_cdcmpeq
    cjson.o(.text) refers to fabs.o(i.__hardfp_fabs) for __hardfp_fabs
    cjson.o(.text) refers to cjson.o(.data) for ep
    cjson.o(.text) refers to malloc.o(i.malloc) for malloc
    cjson.o(.text) refers to malloc.o(i.free) for free
    cjson.o(.text) refers to cdrcmple.o(.text) for __aeabi_cdrcmple
    cjson.o(.text) refers to printfa.o(i.__0sprintf) for __2sprintf
    cjson.o(.text) refers to floor.o(i.__hardfp_floor) for __hardfp_floor
    cjson.o(.text) refers to cjson.o(.constdata) for firstByteMark
    cjson.o(.text) refers to strcpy.o(.text) for strcpy
    cjson.o(.text) refers to strchr.o(.text) for strchr
    cjson.o(.text) refers to strncmp.o(.text) for strncmp
    cjson.o(.text) refers to f2d.o(.text) for __aeabi_f2d
    cjson.o(.data) refers to malloc.o(i.malloc) for malloc
    cjson.o(.data) refers to malloc.o(i.free) for free
    mqttkit.o(.text) refers to malloc.o(i.malloc) for malloc
    mqttkit.o(.text) refers to malloc.o(i.free) for free
    mqttkit.o(.text) refers to strstr.o(.text) for strstr
    mqttkit.o(.text) refers to strlen.o(.text) for strlen
    mqttkit.o(.text) refers to memseta.o(.text) for __aeabi_memclr
    mqttkit.o(.text) refers to strncat.o(.text) for strncat
    mqttkit.o(.text) refers to memcpya.o(.text) for __aeabi_memcpy
    mqttkit.o(.text) refers to printfa.o(i.__0sprintf) for __2sprintf
    mqttkit.o(.text) refers to strchr.o(.text) for strchr
    onenet.o(.text) refers to usart3.o(.text) for Usart_Printf
    onenet.o(.text) refers to mqttkit.o(.text) for MQTT_PacketConnect
    onenet.o(.text) refers to esp8266.o(.text) for ESP8266_SendData
    onenet.o(.text) refers to memseta.o(.text) for __aeabi_memclr4
    onenet.o(.text) refers to strcpy.o(.text) for strcpy
    onenet.o(.text) refers to strlen.o(.text) for strlen
    onenet.o(.text) refers to printfa.o(i.__0printf) for __2printf
    onenet.o(.text) refers to strstr.o(.text) for strstr
    onenet.o(.text) refers to sg90.o(.text) for SG90_SetAngle
    onenet.o(.text) refers to onenet.o(.data) for pkt_id
    onenet.o(.text) refers to strchr.o(.text) for strchr
    onenet.o(.text) refers to atoi.o(.text) for atoi
    onenet.o(.text) refers to malloc.o(i.free) for free
    event_groups.o(.text) refers to heap_4.o(.text) for pvPortMalloc
    event_groups.o(.text) refers to list.o(.text) for vListInitialise
    event_groups.o(.text) refers to tasks.o(.text) for vTaskSuspendAll
    event_groups.o(.text) refers to port.o(.text) for vPortEnterCritical
    queue.o(.text) refers to port.o(.text) for vPortEnterCritical
    queue.o(.text) refers to tasks.o(.text) for xTaskRemoveFromEventList
    queue.o(.text) refers to list.o(.text) for vListInitialise
    queue.o(.text) refers to heap_4.o(.text) for pvPortMalloc
    queue.o(.text) refers to memcpya.o(.text) for __aeabi_memcpy
    queue.o(.text) refers to queue.o(.bss) for xQueueRegistry
    stream_buffer.o(.text) refers to memseta.o(.text) for memset
    stream_buffer.o(.text) refers to heap_4.o(.text) for pvPortMalloc
    stream_buffer.o(.text) refers to port.o(.text) for vPortEnterCritical
    stream_buffer.o(.text) refers to memcpya.o(.text) for __aeabi_memcpy
    stream_buffer.o(.text) refers to tasks.o(.text) for vTaskSetTimeOutState
    tasks.o(.text) refers to list.o(.text) for vListInitialise
    tasks.o(.text) refers to port.o(.text) for vPortEnterCritical
    tasks.o(.text) refers to memseta.o(.text) for __aeabi_memset
    tasks.o(.text) refers to heap_4.o(.text) for pvPortMalloc
    tasks.o(.text) refers to tasks.o(.bss) for pxReadyTasksLists
    tasks.o(.text) refers to tasks.o(.data) for pxDelayedTaskList
    tasks.o(.text) refers to timers.o(.text) for xTimerCreateTimerTask
    timers.o(.text) refers to list.o(.text) for vListInsert
    timers.o(.text) refers to tasks.o(.text) for xTaskGetTickCount
    timers.o(.text) refers to heap_4.o(.text) for vPortFree
    timers.o(.text) refers to queue.o(.text) for xQueueReceive
    timers.o(.text) refers to port.o(.text) for vPortEnterCritical
    timers.o(.text) refers to timers.o(.data) for pxOverflowTimerList
    timers.o(.text) refers to timers.o(.bss) for xActiveTimerList1
    port.o(.emb_text) refers to tasks.o(.text) for vTaskSwitchContext
    port.o(.emb_text) refers to tasks.o(.data) for pxCurrentTCB
    port.o(.text) refers to port.o(.emb_text) for __asm___6_port_c_39a90d8d__prvEnableVFP
    port.o(.text) refers to tasks.o(.text) for xTaskIncrementTick
    port.o(.text) refers to port.o(.data) for uxCriticalNesting
    port.o(.text) refers to system_stm32f4xx.o(.data) for SystemCoreClock
    heap_4.o(.text) refers to tasks.o(.text) for vTaskSuspendAll
    heap_4.o(.text) refers to port.o(.text) for vPortEnterCritical
    heap_4.o(.text) refers to heap_4.o(.data) for xStart
    heap_4.o(.text) refers to heap_4.o(.bss) for ucHeap
    stm32f4xx_adc.o(.text) refers to stm32f4xx_rcc.o(.text) for RCC_APB2PeriphResetCmd
    stm32f4xx_can.o(.text) refers to stm32f4xx_rcc.o(.text) for RCC_APB1PeriphResetCmd
    stm32f4xx_cryp.o(.text) refers to stm32f4xx_rcc.o(.text) for RCC_AHB2PeriphResetCmd
    stm32f4xx_cryp_aes.o(.text) refers to stm32f4xx_cryp.o(.text) for CRYP_KeyStructInit
    stm32f4xx_cryp_des.o(.text) refers to stm32f4xx_cryp.o(.text) for CRYP_KeyStructInit
    stm32f4xx_cryp_tdes.o(.text) refers to stm32f4xx_cryp.o(.text) for CRYP_KeyStructInit
    stm32f4xx_dac.o(.text) refers to stm32f4xx_rcc.o(.text) for RCC_APB1PeriphResetCmd
    stm32f4xx_dma2d.o(.text) refers to stm32f4xx_rcc.o(.text) for RCC_AHB1PeriphResetCmd
    stm32f4xx_fsmc.o(.text) refers to stm32f4xx_fsmc.o(.constdata) for FSMC_DefaultTimingStruct
    stm32f4xx_gpio.o(.text) refers to stm32f4xx_rcc.o(.text) for RCC_AHB1PeriphResetCmd
    stm32f4xx_hash.o(.text) refers to stm32f4xx_rcc.o(.text) for RCC_AHB2PeriphResetCmd
    stm32f4xx_hash_md5.o(.text) refers to stm32f4xx_hash.o(.text) for HASH_DeInit
    stm32f4xx_hash_sha1.o(.text) refers to stm32f4xx_hash.o(.text) for HASH_DeInit
    stm32f4xx_i2c.o(.text) refers to stm32f4xx_rcc.o(.text) for RCC_APB1PeriphResetCmd
    stm32f4xx_ltdc.o(.text) refers to stm32f4xx_rcc.o(.text) for RCC_APB2PeriphResetCmd
    stm32f4xx_pwr.o(.text) refers to stm32f4xx_rcc.o(.text) for RCC_APB1PeriphResetCmd
    stm32f4xx_rcc.o(.text) refers to stm32f4xx_rcc.o(.data) for APBAHBPrescTable
    stm32f4xx_rng.o(.text) refers to stm32f4xx_rcc.o(.text) for RCC_AHB2PeriphResetCmd
    stm32f4xx_sai.o(.text) refers to stm32f4xx_rcc.o(.text) for RCC_APB2PeriphResetCmd
    stm32f4xx_sdio.o(.text) refers to stm32f4xx_rcc.o(.text) for RCC_APB2PeriphResetCmd
    stm32f4xx_spi.o(.text) refers to stm32f4xx_rcc.o(.text) for RCC_APB2PeriphResetCmd
    stm32f4xx_syscfg.o(.text) refers to stm32f4xx_rcc.o(.text) for RCC_APB2PeriphResetCmd
    stm32f4xx_tim.o(.text) refers to stm32f4xx_rcc.o(.text) for RCC_APB2PeriphResetCmd
    stm32f4xx_usart.o(.text) refers to stm32f4xx_rcc.o(.text) for RCC_APB2PeriphResetCmd
    stm32f4xx_wwdg.o(.text) refers to stm32f4xx_rcc.o(.text) for RCC_APB1PeriphResetCmd
    delay.o(.text) refers to tasks.o(.text) for xTaskGetSchedulerState
    delay.o(.text) refers to port.o(.text) for xPortSysTickHandler
    delay.o(.text) refers to misc.o(.text) for SysTick_CLKSourceConfig
    delay.o(.text) refers to delay.o(.data) for fac_us
    usart_1.o(.text) refers to stm32f4xx_rcc.o(.text) for RCC_AHB1PeriphClockCmd
    usart_1.o(.text) refers to stm32f4xx_gpio.o(.text) for GPIO_PinAFConfig
    usart_1.o(.text) refers to stm32f4xx_usart.o(.text) for USART_Init
    usart_1.o(.text) refers to misc.o(.text) for NVIC_Init
    usart_1.o(.text) refers to usart_1.o(.data) for USART_RX_STA
    usart_1.o(.text) refers to usart_1.o(.bss) for USART_RX_BUF
    fabs.o(i.__hardfp_fabs) refers (Special) to iusefp.o(.text) for __I$use$fp
    fabs.o(i.__softfp_fabs) refers (Special) to iusefp.o(.text) for __I$use$fp
    fabs.o(i.fabs) refers (Special) to iusefp.o(.text) for __I$use$fp
    floor.o(i.__hardfp_floor) refers (Special) to iusefp.o(.text) for __I$use$fp
    floor.o(i.__hardfp_floor) refers to dadd.o(.text) for __aeabi_dadd
    floor.o(i.__hardfp_floor) refers to cdrcmple.o(.text) for __aeabi_cdrcmple
    floor.o(i.__softfp_floor) refers (Special) to iusefp.o(.text) for __I$use$fp
    floor.o(i.__softfp_floor) refers to floor.o(i.__hardfp_floor) for __hardfp_floor
    floor.o(i.floor) refers (Special) to iusefp.o(.text) for __I$use$fp
    floor.o(i.floor) refers to floor.o(i.__hardfp_floor) for __hardfp_floor
    pow.o(i.__hardfp_pow) refers (Special) to iusefp.o(.text) for __I$use$fp
    pow.o(i.__hardfp_pow) refers to dunder.o(i.__mathlib_dbl_infnan2) for __mathlib_dbl_infnan2
    pow.o(i.__hardfp_pow) refers to errno.o(i.__set_errno) for __set_errno
    pow.o(i.__hardfp_pow) refers to dunder.o(i.__mathlib_dbl_divzero) for __mathlib_dbl_divzero
    pow.o(i.__hardfp_pow) refers to dunder.o(i.__mathlib_dbl_overflow) for __mathlib_dbl_overflow
    pow.o(i.__hardfp_pow) refers to ddiv.o(.text) for __aeabi_ddiv
    pow.o(i.__hardfp_pow) refers to sqrt.o(i.sqrt) for sqrt
    pow.o(i.__hardfp_pow) refers to fabs.o(i.fabs) for fabs
    pow.o(i.__hardfp_pow) refers to dflti.o(.text) for __aeabi_i2d
    pow.o(i.__hardfp_pow) refers to dunder.o(i.__mathlib_dbl_invalid) for __mathlib_dbl_invalid
    pow.o(i.__hardfp_pow) refers to dmul.o(.text) for __aeabi_dmul
    pow.o(i.__hardfp_pow) refers to dunder.o(i.__mathlib_dbl_underflow) for __mathlib_dbl_underflow
    pow.o(i.__hardfp_pow) refers to dadd.o(.text) for __aeabi_dsub
    pow.o(i.__hardfp_pow) refers to qnan.o(.constdata) for __mathlib_zero
    pow.o(i.__hardfp_pow) refers to poly.o(i.__kernel_poly) for __kernel_poly
    pow.o(i.__hardfp_pow) refers to pow.o(.constdata) for .constdata
    pow.o(i.__hardfp_pow) refers to cdrcmple.o(.text) for __aeabi_cdrcmple
    pow.o(i.__hardfp_pow) refers to dscalb.o(.text) for __ARM_scalbn
    pow.o(i.__hardfp_pow) refers to fpclassify.o(i.__ARM_fpclassify) for __ARM_fpclassify
    pow.o(i.__softfp_pow) refers (Special) to iusefp.o(.text) for __I$use$fp
    pow.o(i.__softfp_pow) refers to pow.o(i.__hardfp_pow) for __hardfp_pow
    pow.o(i.pow) refers (Special) to iusefp.o(.text) for __I$use$fp
    pow.o(i.pow) refers to pow.o(i.__hardfp_pow) for __hardfp_pow
    pow.o(.constdata) refers (Special) to iusefp.o(.text) for __I$use$fp
    pow_x.o(i.____hardfp_pow$lsc) refers (Special) to iusefp.o(.text) for __I$use$fp
    pow_x.o(i.____hardfp_pow$lsc) refers to dunder.o(i.__mathlib_dbl_infnan2) for __mathlib_dbl_infnan2
    pow_x.o(i.____hardfp_pow$lsc) refers to errno.o(i.__set_errno) for __set_errno
    pow_x.o(i.____hardfp_pow$lsc) refers to ddiv.o(.text) for __aeabi_ddiv
    pow_x.o(i.____hardfp_pow$lsc) refers to sqrt.o(i.sqrt) for sqrt
    pow_x.o(i.____hardfp_pow$lsc) refers to fabs.o(i.fabs) for fabs
    pow_x.o(i.____hardfp_pow$lsc) refers to dflti.o(.text) for __aeabi_i2d
    pow_x.o(i.____hardfp_pow$lsc) refers to dmul.o(.text) for __aeabi_dmul
    pow_x.o(i.____hardfp_pow$lsc) refers to dadd.o(.text) for __aeabi_dsub
    pow_x.o(i.____hardfp_pow$lsc) refers to qnan.o(.constdata) for __mathlib_zero
    pow_x.o(i.____hardfp_pow$lsc) refers to poly.o(i.__kernel_poly) for __kernel_poly
    pow_x.o(i.____hardfp_pow$lsc) refers to pow_x.o(.constdata) for .constdata
    pow_x.o(i.____hardfp_pow$lsc) refers to cdrcmple.o(.text) for __aeabi_cdrcmple
    pow_x.o(i.____hardfp_pow$lsc) refers to dscalb.o(.text) for __ARM_scalbn
    pow_x.o(i.____softfp_pow$lsc) refers (Special) to iusefp.o(.text) for __I$use$fp
    pow_x.o(i.____softfp_pow$lsc) refers to pow_x.o(i.____hardfp_pow$lsc) for ____hardfp_pow$lsc
    pow_x.o(i.__pow$lsc) refers (Special) to iusefp.o(.text) for __I$use$fp
    pow_x.o(i.__pow$lsc) refers to pow_x.o(i.____hardfp_pow$lsc) for ____hardfp_pow$lsc
    pow_x.o(.constdata) refers (Special) to iusefp.o(.text) for __I$use$fp
    sqrt.o(i.__hardfp_sqrt) refers (Special) to iusefp.o(.text) for __I$use$fp
    sqrt.o(i.__hardfp_sqrt) refers to dsqrt.o(.text) for _dsqrt
    sqrt.o(i.__hardfp_sqrt) refers to errno.o(i.__set_errno) for __set_errno
    sqrt.o(i.__softfp_sqrt) refers (Special) to iusefp.o(.text) for __I$use$fp
    sqrt.o(i.__softfp_sqrt) refers to dsqrt.o(.text) for _dsqrt
    sqrt.o(i.__softfp_sqrt) refers to errno.o(i.__set_errno) for __set_errno
    sqrt.o(i.sqrt) refers (Special) to iusefp.o(.text) for __I$use$fp
    sqrt.o(i.sqrt) refers to dsqrt.o(.text) for _dsqrt
    sqrt.o(i.sqrt) refers to errno.o(i.__set_errno) for __set_errno
    sqrt_x.o(i.____hardfp_sqrt$lsc) refers (Special) to iusefp.o(.text) for __I$use$fp
    sqrt_x.o(i.____hardfp_sqrt$lsc) refers to cdcmple.o(.text) for __aeabi_cdcmple
    sqrt_x.o(i.____hardfp_sqrt$lsc) refers to errno.o(i.__set_errno) for __set_errno
    sqrt_x.o(i.____hardfp_sqrt$lsc) refers to dsqrt.o(.text) for _dsqrt
    sqrt_x.o(i.____softfp_sqrt$lsc) refers (Special) to iusefp.o(.text) for __I$use$fp
    sqrt_x.o(i.____softfp_sqrt$lsc) refers to cdcmple.o(.text) for __aeabi_cdcmple
    sqrt_x.o(i.____softfp_sqrt$lsc) refers to errno.o(i.__set_errno) for __set_errno
    sqrt_x.o(i.____softfp_sqrt$lsc) refers to dsqrt.o(.text) for _dsqrt
    sqrt_x.o(i.__sqrt$lsc) refers (Special) to iusefp.o(.text) for __I$use$fp
    sqrt_x.o(i.__sqrt$lsc) refers to cdcmple.o(.text) for __aeabi_cdcmple
    sqrt_x.o(i.__sqrt$lsc) refers to errno.o(i.__set_errno) for __set_errno
    sqrt_x.o(i.__sqrt$lsc) refers to dsqrt.o(.text) for _dsqrt
    entry.o(.ARM.Collect$$$$00000000) refers (Special) to entry10a.o(.ARM.Collect$$$$0000000F) for __rt_final_cpp
    entry.o(.ARM.Collect$$$$00000000) refers (Special) to entry11a.o(.ARM.Collect$$$$00000011) for __rt_final_exit
    entry.o(.ARM.Collect$$$$00000000) refers (Special) to entry12b.o(.ARM.Collect$$$$0000000E) for __rt_lib_shutdown_fini
    entry.o(.ARM.Collect$$$$00000000) refers (Special) to entry7b.o(.ARM.Collect$$$$00000008) for _main_clock
    entry.o(.ARM.Collect$$$$00000000) refers (Special) to entry8b.o(.ARM.Collect$$$$0000000A) for _main_cpp_init
    entry.o(.ARM.Collect$$$$00000000) refers (Special) to entry9a.o(.ARM.Collect$$$$0000000B) for _main_init
    entry.o(.ARM.Collect$$$$00000000) refers (Special) to entry5.o(.ARM.Collect$$$$00000004) for _main_scatterload
    entry.o(.ARM.Collect$$$$00000000) refers (Special) to entry2.o(.ARM.Collect$$$$00000001) for _main_stk
    printfb.o(i.__0fprintf$bare) refers to printfb.o(i._printf_core) for _printf_core
    printfb.o(i.__0fprintf$bare) refers to usart_1.o(.text) for fputc
    printfb.o(i.__0printf$bare) refers to printfb.o(i._printf_core) for _printf_core
    printfb.o(i.__0printf$bare) refers to usart_1.o(.text) for fputc
    printfb.o(i.__0printf$bare) refers to usart_1.o(.data) for __stdout
    printfb.o(i.__0snprintf$bare) refers to printfb.o(i._printf_core) for _printf_core
    printfb.o(i.__0snprintf$bare) refers to printfb.o(i._snputc) for _snputc
    printfb.o(i.__0sprintf$bare) refers to printfb.o(i._printf_core) for _printf_core
    printfb.o(i.__0sprintf$bare) refers to printfb.o(i._sputc) for _sputc
    printfb.o(i.__0vfprintf$bare) refers to printfb.o(i._printf_core) for _printf_core
    printfb.o(i.__0vfprintf$bare) refers to usart_1.o(.text) for fputc
    printfb.o(i.__0vprintf$bare) refers to printfb.o(i._printf_core) for _printf_core
    printfb.o(i.__0vprintf$bare) refers to usart_1.o(.text) for fputc
    printfb.o(i.__0vprintf$bare) refers to usart_1.o(.data) for __stdout
    printfb.o(i.__0vsnprintf$bare) refers to printfb.o(i._printf_core) for _printf_core
    printfb.o(i.__0vsnprintf$bare) refers to printfb.o(i._snputc) for _snputc
    printfb.o(i.__0vsprintf$bare) refers to printfb.o(i._printf_core) for _printf_core
    printfb.o(i.__0vsprintf$bare) refers to printfb.o(i._sputc) for _sputc
    printf0.o(i.__0fprintf$0) refers to printf0.o(i._printf_core) for _printf_core
    printf0.o(i.__0fprintf$0) refers to usart_1.o(.text) for fputc
    printf0.o(i.__0printf$0) refers to printf0.o(i._printf_core) for _printf_core
    printf0.o(i.__0printf$0) refers to usart_1.o(.text) for fputc
    printf0.o(i.__0printf$0) refers to usart_1.o(.data) for __stdout
    printf0.o(i.__0snprintf$0) refers to printf0.o(i._printf_core) for _printf_core
    printf0.o(i.__0snprintf$0) refers to printf0.o(i._snputc) for _snputc
    printf0.o(i.__0sprintf$0) refers to printf0.o(i._printf_core) for _printf_core
    printf0.o(i.__0sprintf$0) refers to printf0.o(i._sputc) for _sputc
    printf0.o(i.__0vfprintf$0) refers to printf0.o(i._printf_core) for _printf_core
    printf0.o(i.__0vfprintf$0) refers to usart_1.o(.text) for fputc
    printf0.o(i.__0vprintf$0) refers to printf0.o(i._printf_core) for _printf_core
    printf0.o(i.__0vprintf$0) refers to usart_1.o(.text) for fputc
    printf0.o(i.__0vprintf$0) refers to usart_1.o(.data) for __stdout
    printf0.o(i.__0vsnprintf$0) refers to printf0.o(i._printf_core) for _printf_core
    printf0.o(i.__0vsnprintf$0) refers to printf0.o(i._snputc) for _snputc
    printf0.o(i.__0vsprintf$0) refers to printf0.o(i._printf_core) for _printf_core
    printf0.o(i.__0vsprintf$0) refers to printf0.o(i._sputc) for _sputc
    printf1.o(i.__0fprintf$1) refers to printf1.o(i._printf_core) for _printf_core
    printf1.o(i.__0fprintf$1) refers to usart_1.o(.text) for fputc
    printf1.o(i.__0printf$1) refers to printf1.o(i._printf_core) for _printf_core
    printf1.o(i.__0printf$1) refers to usart_1.o(.text) for fputc
    printf1.o(i.__0printf$1) refers to usart_1.o(.data) for __stdout
    printf1.o(i.__0snprintf$1) refers to printf1.o(i._printf_core) for _printf_core
    printf1.o(i.__0snprintf$1) refers to printf1.o(i._snputc) for _snputc
    printf1.o(i.__0sprintf$1) refers to printf1.o(i._printf_core) for _printf_core
    printf1.o(i.__0sprintf$1) refers to printf1.o(i._sputc) for _sputc
    printf1.o(i.__0vfprintf$1) refers to printf1.o(i._printf_core) for _printf_core
    printf1.o(i.__0vfprintf$1) refers to usart_1.o(.text) for fputc
    printf1.o(i.__0vprintf$1) refers to printf1.o(i._printf_core) for _printf_core
    printf1.o(i.__0vprintf$1) refers to usart_1.o(.text) for fputc
    printf1.o(i.__0vprintf$1) refers to usart_1.o(.data) for __stdout
    printf1.o(i.__0vsnprintf$1) refers to printf1.o(i._printf_core) for _printf_core
    printf1.o(i.__0vsnprintf$1) refers to printf1.o(i._snputc) for _snputc
    printf1.o(i.__0vsprintf$1) refers to printf1.o(i._printf_core) for _printf_core
    printf1.o(i.__0vsprintf$1) refers to printf1.o(i._sputc) for _sputc
    printf1.o(i._printf_core) refers to uidiv.o(.text) for __aeabi_uidivmod
    printf2.o(i.__0fprintf$2) refers to printf2.o(i._printf_core) for _printf_core
    printf2.o(i.__0fprintf$2) refers to usart_1.o(.text) for fputc
    printf2.o(i.__0printf$2) refers to printf2.o(i._printf_core) for _printf_core
    printf2.o(i.__0printf$2) refers to usart_1.o(.text) for fputc
    printf2.o(i.__0printf$2) refers to usart_1.o(.data) for __stdout
    printf2.o(i.__0snprintf$2) refers to printf2.o(i._printf_core) for _printf_core
    printf2.o(i.__0snprintf$2) refers to printf2.o(i._snputc) for _snputc
    printf2.o(i.__0sprintf$2) refers to printf2.o(i._printf_core) for _printf_core
    printf2.o(i.__0sprintf$2) refers to printf2.o(i._sputc) for _sputc
    printf2.o(i.__0vfprintf$2) refers to printf2.o(i._printf_core) for _printf_core
    printf2.o(i.__0vfprintf$2) refers to usart_1.o(.text) for fputc
    printf2.o(i.__0vprintf$2) refers to printf2.o(i._printf_core) for _printf_core
    printf2.o(i.__0vprintf$2) refers to usart_1.o(.text) for fputc
    printf2.o(i.__0vprintf$2) refers to usart_1.o(.data) for __stdout
    printf2.o(i.__0vsnprintf$2) refers to printf2.o(i._printf_core) for _printf_core
    printf2.o(i.__0vsnprintf$2) refers to printf2.o(i._snputc) for _snputc
    printf2.o(i.__0vsprintf$2) refers to printf2.o(i._printf_core) for _printf_core
    printf2.o(i.__0vsprintf$2) refers to printf2.o(i._sputc) for _sputc
    printf3.o(i.__0fprintf$3) refers to printf3.o(i._printf_core) for _printf_core
    printf3.o(i.__0fprintf$3) refers to usart_1.o(.text) for fputc
    printf3.o(i.__0printf$3) refers to printf3.o(i._printf_core) for _printf_core
    printf3.o(i.__0printf$3) refers to usart_1.o(.text) for fputc
    printf3.o(i.__0printf$3) refers to usart_1.o(.data) for __stdout
    printf3.o(i.__0snprintf$3) refers to printf3.o(i._printf_core) for _printf_core
    printf3.o(i.__0snprintf$3) refers to printf3.o(i._snputc) for _snputc
    printf3.o(i.__0sprintf$3) refers to printf3.o(i._printf_core) for _printf_core
    printf3.o(i.__0sprintf$3) refers to printf3.o(i._sputc) for _sputc
    printf3.o(i.__0vfprintf$3) refers to printf3.o(i._printf_core) for _printf_core
    printf3.o(i.__0vfprintf$3) refers to usart_1.o(.text) for fputc
    printf3.o(i.__0vprintf$3) refers to printf3.o(i._printf_core) for _printf_core
    printf3.o(i.__0vprintf$3) refers to usart_1.o(.text) for fputc
    printf3.o(i.__0vprintf$3) refers to usart_1.o(.data) for __stdout
    printf3.o(i.__0vsnprintf$3) refers to printf3.o(i._printf_core) for _printf_core
    printf3.o(i.__0vsnprintf$3) refers to printf3.o(i._snputc) for _snputc
    printf3.o(i.__0vsprintf$3) refers to printf3.o(i._printf_core) for _printf_core
    printf3.o(i.__0vsprintf$3) refers to printf3.o(i._sputc) for _sputc
    printf3.o(i._printf_core) refers to uidiv.o(.text) for __aeabi_uidivmod
    printf4.o(i.__0fprintf$4) refers to printf4.o(i._printf_core) for _printf_core
    printf4.o(i.__0fprintf$4) refers to usart_1.o(.text) for fputc
    printf4.o(i.__0printf$4) refers to printf4.o(i._printf_core) for _printf_core
    printf4.o(i.__0printf$4) refers to usart_1.o(.text) for fputc
    printf4.o(i.__0printf$4) refers to usart_1.o(.data) for __stdout
    printf4.o(i.__0snprintf$4) refers to printf4.o(i._printf_core) for _printf_core
    printf4.o(i.__0snprintf$4) refers to printf4.o(i._snputc) for _snputc
    printf4.o(i.__0sprintf$4) refers to printf4.o(i._printf_core) for _printf_core
    printf4.o(i.__0sprintf$4) refers to printf4.o(i._sputc) for _sputc
    printf4.o(i.__0vfprintf$4) refers to printf4.o(i._printf_core) for _printf_core
    printf4.o(i.__0vfprintf$4) refers to usart_1.o(.text) for fputc
    printf4.o(i.__0vprintf$4) refers to printf4.o(i._printf_core) for _printf_core
    printf4.o(i.__0vprintf$4) refers to usart_1.o(.text) for fputc
    printf4.o(i.__0vprintf$4) refers to usart_1.o(.data) for __stdout
    printf4.o(i.__0vsnprintf$4) refers to printf4.o(i._printf_core) for _printf_core
    printf4.o(i.__0vsnprintf$4) refers to printf4.o(i._snputc) for _snputc
    printf4.o(i.__0vsprintf$4) refers to printf4.o(i._printf_core) for _printf_core
    printf4.o(i.__0vsprintf$4) refers to printf4.o(i._sputc) for _sputc
    printf4.o(i._printf_core) refers to uldiv.o(.text) for __aeabi_uldivmod
    printf5.o(i.__0fprintf$5) refers to printf5.o(i._printf_core) for _printf_core
    printf5.o(i.__0fprintf$5) refers to usart_1.o(.text) for fputc
    printf5.o(i.__0printf$5) refers to printf5.o(i._printf_core) for _printf_core
    printf5.o(i.__0printf$5) refers to usart_1.o(.text) for fputc
    printf5.o(i.__0printf$5) refers to usart_1.o(.data) for __stdout
    printf5.o(i.__0snprintf$5) refers to printf5.o(i._printf_core) for _printf_core
    printf5.o(i.__0snprintf$5) refers to printf5.o(i._snputc) for _snputc
    printf5.o(i.__0sprintf$5) refers to printf5.o(i._printf_core) for _printf_core
    printf5.o(i.__0sprintf$5) refers to printf5.o(i._sputc) for _sputc
    printf5.o(i.__0vfprintf$5) refers to printf5.o(i._printf_core) for _printf_core
    printf5.o(i.__0vfprintf$5) refers to usart_1.o(.text) for fputc
    printf5.o(i.__0vprintf$5) refers to printf5.o(i._printf_core) for _printf_core
    printf5.o(i.__0vprintf$5) refers to usart_1.o(.text) for fputc
    printf5.o(i.__0vprintf$5) refers to usart_1.o(.data) for __stdout
    printf5.o(i.__0vsnprintf$5) refers to printf5.o(i._printf_core) for _printf_core
    printf5.o(i.__0vsnprintf$5) refers to printf5.o(i._snputc) for _snputc
    printf5.o(i.__0vsprintf$5) refers to printf5.o(i._printf_core) for _printf_core
    printf5.o(i.__0vsprintf$5) refers to printf5.o(i._sputc) for _sputc
    printf5.o(i._printf_core) refers to uldiv.o(.text) for __aeabi_uldivmod
    printf6.o(i.__0fprintf$6) refers to printf6.o(i._printf_core) for _printf_core
    printf6.o(i.__0fprintf$6) refers to usart_1.o(.text) for fputc
    printf6.o(i.__0printf$6) refers to printf6.o(i._printf_core) for _printf_core
    printf6.o(i.__0printf$6) refers to usart_1.o(.text) for fputc
    printf6.o(i.__0printf$6) refers to usart_1.o(.data) for __stdout
    printf6.o(i.__0snprintf$6) refers to printf6.o(i._printf_core) for _printf_core
    printf6.o(i.__0snprintf$6) refers to printf6.o(i._snputc) for _snputc
    printf6.o(i.__0sprintf$6) refers to printf6.o(i._printf_core) for _printf_core
    printf6.o(i.__0sprintf$6) refers to printf6.o(i._sputc) for _sputc
    printf6.o(i.__0vfprintf$6) refers to printf6.o(i._printf_core) for _printf_core
    printf6.o(i.__0vfprintf$6) refers to usart_1.o(.text) for fputc
    printf6.o(i.__0vprintf$6) refers to printf6.o(i._printf_core) for _printf_core
    printf6.o(i.__0vprintf$6) refers to usart_1.o(.text) for fputc
    printf6.o(i.__0vprintf$6) refers to usart_1.o(.data) for __stdout
    printf6.o(i.__0vsnprintf$6) refers to printf6.o(i._printf_core) for _printf_core
    printf6.o(i.__0vsnprintf$6) refers to printf6.o(i._snputc) for _snputc
    printf6.o(i.__0vsprintf$6) refers to printf6.o(i._printf_core) for _printf_core
    printf6.o(i.__0vsprintf$6) refers to printf6.o(i._sputc) for _sputc
    printf6.o(i._printf_core) refers to printf6.o(i._printf_pre_padding) for _printf_pre_padding
    printf6.o(i._printf_core) refers to uidiv.o(.text) for __aeabi_uidivmod
    printf6.o(i._printf_core) refers to printf6.o(i._printf_post_padding) for _printf_post_padding
    printf7.o(i.__0fprintf$7) refers to printf7.o(i._printf_core) for _printf_core
    printf7.o(i.__0fprintf$7) refers to usart_1.o(.text) for fputc
    printf7.o(i.__0printf$7) refers to printf7.o(i._printf_core) for _printf_core
    printf7.o(i.__0printf$7) refers to usart_1.o(.text) for fputc
    printf7.o(i.__0printf$7) refers to usart_1.o(.data) for __stdout
    printf7.o(i.__0snprintf$7) refers to printf7.o(i._printf_core) for _printf_core
    printf7.o(i.__0snprintf$7) refers to printf7.o(i._snputc) for _snputc
    printf7.o(i.__0sprintf$7) refers to printf7.o(i._printf_core) for _printf_core
    printf7.o(i.__0sprintf$7) refers to printf7.o(i._sputc) for _sputc
    printf7.o(i.__0vfprintf$7) refers to printf7.o(i._printf_core) for _printf_core
    printf7.o(i.__0vfprintf$7) refers to usart_1.o(.text) for fputc
    printf7.o(i.__0vprintf$7) refers to printf7.o(i._printf_core) for _printf_core
    printf7.o(i.__0vprintf$7) refers to usart_1.o(.text) for fputc
    printf7.o(i.__0vprintf$7) refers to usart_1.o(.data) for __stdout
    printf7.o(i.__0vsnprintf$7) refers to printf7.o(i._printf_core) for _printf_core
    printf7.o(i.__0vsnprintf$7) refers to printf7.o(i._snputc) for _snputc
    printf7.o(i.__0vsprintf$7) refers to printf7.o(i._printf_core) for _printf_core
    printf7.o(i.__0vsprintf$7) refers to printf7.o(i._sputc) for _sputc
    printf7.o(i._printf_core) refers to printf7.o(i._printf_pre_padding) for _printf_pre_padding
    printf7.o(i._printf_core) refers to uldiv.o(.text) for __aeabi_uldivmod
    printf7.o(i._printf_core) refers to printf7.o(i._printf_post_padding) for _printf_post_padding
    printf8.o(i.__0fprintf$8) refers to printf8.o(i._printf_core) for _printf_core
    printf8.o(i.__0fprintf$8) refers to usart_1.o(.text) for fputc
    printf8.o(i.__0printf$8) refers to printf8.o(i._printf_core) for _printf_core
    printf8.o(i.__0printf$8) refers to usart_1.o(.text) for fputc
    printf8.o(i.__0printf$8) refers to usart_1.o(.data) for __stdout
    printf8.o(i.__0snprintf$8) refers to printf8.o(i._printf_core) for _printf_core
    printf8.o(i.__0snprintf$8) refers to printf8.o(i._snputc) for _snputc
    printf8.o(i.__0sprintf$8) refers to printf8.o(i._printf_core) for _printf_core
    printf8.o(i.__0sprintf$8) refers to printf8.o(i._sputc) for _sputc
    printf8.o(i.__0vfprintf$8) refers to printf8.o(i._printf_core) for _printf_core
    printf8.o(i.__0vfprintf$8) refers to usart_1.o(.text) for fputc
    printf8.o(i.__0vprintf$8) refers to printf8.o(i._printf_core) for _printf_core
    printf8.o(i.__0vprintf$8) refers to usart_1.o(.text) for fputc
    printf8.o(i.__0vprintf$8) refers to usart_1.o(.data) for __stdout
    printf8.o(i.__0vsnprintf$8) refers to printf8.o(i._printf_core) for _printf_core
    printf8.o(i.__0vsnprintf$8) refers to printf8.o(i._snputc) for _snputc
    printf8.o(i.__0vsprintf$8) refers to printf8.o(i._printf_core) for _printf_core
    printf8.o(i.__0vsprintf$8) refers to printf8.o(i._sputc) for _sputc
    printf8.o(i._printf_core) refers to printf8.o(i._printf_pre_padding) for _printf_pre_padding
    printf8.o(i._printf_core) refers to uldiv.o(.text) for __aeabi_uldivmod
    printf8.o(i._printf_core) refers to printf8.o(i._printf_post_padding) for _printf_post_padding
    printfa.o(i.__0fprintf) refers (Special) to iusefp.o(.text) for __I$use$fp
    printfa.o(i.__0fprintf) refers to printfa.o(i._printf_core) for _printf_core
    printfa.o(i.__0fprintf) refers to usart_1.o(.text) for fputc
    printfa.o(i.__0printf) refers (Special) to iusefp.o(.text) for __I$use$fp
    printfa.o(i.__0printf) refers to printfa.o(i._printf_core) for _printf_core
    printfa.o(i.__0printf) refers to usart_1.o(.text) for fputc
    printfa.o(i.__0printf) refers to usart_1.o(.data) for __stdout
    printfa.o(i.__0snprintf) refers (Special) to iusefp.o(.text) for __I$use$fp
    printfa.o(i.__0snprintf) refers to printfa.o(i._printf_core) for _printf_core
    printfa.o(i.__0snprintf) refers to printfa.o(i._snputc) for _snputc
    printfa.o(i.__0sprintf) refers (Special) to iusefp.o(.text) for __I$use$fp
    printfa.o(i.__0sprintf) refers to printfa.o(i._printf_core) for _printf_core
    printfa.o(i.__0sprintf) refers to printfa.o(i._sputc) for _sputc
    printfa.o(i.__0vfprintf) refers (Special) to iusefp.o(.text) for __I$use$fp
    printfa.o(i.__0vfprintf) refers to printfa.o(i._printf_core) for _printf_core
    printfa.o(i.__0vfprintf) refers to usart_1.o(.text) for fputc
    printfa.o(i.__0vprintf) refers (Special) to iusefp.o(.text) for __I$use$fp
    printfa.o(i.__0vprintf) refers to printfa.o(i._printf_core) for _printf_core
    printfa.o(i.__0vprintf) refers to usart_1.o(.text) for fputc
    printfa.o(i.__0vprintf) refers to usart_1.o(.data) for __stdout
    printfa.o(i.__0vsnprintf) refers (Special) to iusefp.o(.text) for __I$use$fp
    printfa.o(i.__0vsnprintf) refers to printfa.o(i._printf_core) for _printf_core
    printfa.o(i.__0vsnprintf) refers to printfa.o(i._snputc) for _snputc
    printfa.o(i.__0vsprintf) refers (Special) to iusefp.o(.text) for __I$use$fp
    printfa.o(i.__0vsprintf) refers to printfa.o(i._printf_core) for _printf_core
    printfa.o(i.__0vsprintf) refers to printfa.o(i._sputc) for _sputc
    printfa.o(i._fp_digits) refers (Special) to iusefp.o(.text) for __I$use$fp
    printfa.o(i._fp_digits) refers to dmul.o(.text) for __aeabi_dmul
    printfa.o(i._fp_digits) refers to ddiv.o(.text) for __aeabi_ddiv
    printfa.o(i._fp_digits) refers to cdrcmple.o(.text) for __aeabi_cdrcmple
    printfa.o(i._fp_digits) refers to dadd.o(.text) for __aeabi_dadd
    printfa.o(i._fp_digits) refers to dfixul.o(.text) for __aeabi_d2ulz
    printfa.o(i._fp_digits) refers to uldiv.o(.text) for __aeabi_uldivmod
    printfa.o(i._printf_core) refers (Special) to iusefp.o(.text) for __I$use$fp
    printfa.o(i._printf_core) refers to printfa.o(i._printf_pre_padding) for _printf_pre_padding
    printfa.o(i._printf_core) refers to uldiv.o(.text) for __aeabi_uldivmod
    printfa.o(i._printf_core) refers to printfa.o(i._printf_post_padding) for _printf_post_padding
    printfa.o(i._printf_core) refers to printfa.o(i._fp_digits) for _fp_digits
    printfa.o(i._printf_core) refers to uidiv.o(.text) for __aeabi_uidivmod
    printfa.o(i._printf_post_padding) refers (Special) to iusefp.o(.text) for __I$use$fp
    printfa.o(i._printf_pre_padding) refers (Special) to iusefp.o(.text) for __I$use$fp
    printfa.o(i._snputc) refers (Special) to iusefp.o(.text) for __I$use$fp
    printfa.o(i._sputc) refers (Special) to iusefp.o(.text) for __I$use$fp
    malloc.o(i.free) refers to mvars.o(.data) for __microlib_freelist
    malloc.o(i.malloc) refers to mvars.o(.data) for __microlib_freelist_initialised
    malloc.o(i.malloc) refers to mvars.o(.data) for __microlib_freelist
    malloc.o(i.malloc) refers to startup_stm32f40_41xxx.o(HEAP) for __heap_base
    mallocr.o(i.__free$realloc) refers to mvars.o(.data) for __microlib_freelist
    mallocr.o(i.__malloc$realloc) refers to mallocr.o(i.internal_alloc) for internal_alloc
    mallocr.o(i.__malloc$realloc) refers to mvars.o(.data) for __microlib_freelist_initialised
    mallocr.o(i.__malloc$realloc) refers to startup_stm32f40_41xxx.o(HEAP) for __heap_base
    mallocr.o(i.__malloc$realloc) refers to mvars.o(.data) for __microlib_freelist
    mallocr.o(i.internal_alloc) refers to memcpya.o(.text) for __aeabi_memcpy
    mallocr.o(i.internal_alloc) refers to mvars.o(.data) for __microlib_freelist
    mallocr.o(i.realloc) refers to mallocr.o(i.__free$realloc) for __free$realloc
    mallocr.o(i.realloc) refers to mallocr.o(i.internal_alloc) for internal_alloc
    mallocr.o(i.realloc) refers to mallocr.o(i.__malloc$realloc) for __malloc$realloc
    mallocr.o(i.realloc) refers to mvars.o(.data) for __microlib_freelist
    malloca.o(i.__aligned_malloc) refers to mvars.o(.data) for __microlib_freelist_initialised
    malloca.o(i.__aligned_malloc) refers to mvars.o(.data) for __microlib_freelist
    malloca.o(i.__aligned_malloc) refers to startup_stm32f40_41xxx.o(HEAP) for __heap_base
    malloca.o(i.__free$memalign) refers to mvars.o(.data) for __microlib_freelist
    malloca.o(i.__malloc$memalign) refers to malloca.o(i.__aligned_malloc) for __aligned_malloc
    mallocra.o(i.__aligned_malloc$realloc) refers to mallocra.o(i.internal_alloc) for internal_alloc
    mallocra.o(i.__aligned_malloc$realloc) refers to mvars.o(.data) for __microlib_freelist_initialised
    mallocra.o(i.__aligned_malloc$realloc) refers to startup_stm32f40_41xxx.o(HEAP) for __heap_base
    mallocra.o(i.__aligned_malloc$realloc) refers to mvars.o(.data) for __microlib_freelist
    mallocra.o(i.__free$realloc$memalign) refers to mvars.o(.data) for __microlib_freelist
    mallocra.o(i.__malloc$realloc$memalign) refers to mallocra.o(i.__aligned_malloc$realloc) for __aligned_malloc$realloc
    mallocra.o(i.__realloc$memalign) refers to mallocra.o(i.__free$realloc$memalign) for __free$realloc$memalign
    mallocra.o(i.__realloc$memalign) refers to mallocra.o(i.internal_alloc) for internal_alloc
    mallocra.o(i.__realloc$memalign) refers to mallocra.o(i.__malloc$realloc$memalign) for __malloc$realloc$memalign
    mallocra.o(i.__realloc$memalign) refers to mvars.o(.data) for __microlib_freelist
    mallocra.o(i.internal_alloc) refers to memcpya.o(.text) for __aeabi_memcpy
    mallocra.o(i.internal_alloc) refers to mvars.o(.data) for __microlib_freelist
    atoi.o(.text) refers to errno.o(i.__aeabi_errno_addr) for __aeabi_errno_addr
    atoi.o(.text) refers to strtol.o(.text) for strtol
    dadd.o(.text) refers (Special) to iusefp.o(.text) for __I$use$fp
    dadd.o(.text) refers to llshl.o(.text) for __aeabi_llsl
    dadd.o(.text) refers to llsshr.o(.text) for __aeabi_lasr
    dadd.o(.text) refers to depilogue.o(.text) for _double_epilogue
    dmul.o(.text) refers (Special) to iusefp.o(.text) for __I$use$fp
    dmul.o(.text) refers to depilogue.o(.text) for _double_epilogue
    dflti.o(.text) refers (Special) to iusefp.o(.text) for __I$use$fp
    dflti.o(.text) refers to depilogue.o(.text) for _double_epilogue
    dfltui.o(.text) refers (Special) to iusefp.o(.text) for __I$use$fp
    dfltui.o(.text) refers to depilogue.o(.text) for _double_epilogue
    dfixi.o(.text) refers (Special) to iusefp.o(.text) for __I$use$fp
    dfixi.o(.text) refers to llushr.o(.text) for __aeabi_llsr
    dfixui.o(.text) refers (Special) to iusefp.o(.text) for __I$use$fp
    dfixui.o(.text) refers to llushr.o(.text) for __aeabi_llsr
    f2d.o(.text) refers (Special) to iusefp.o(.text) for __I$use$fp
    cdcmple.o(.text) refers (Special) to iusefp.o(.text) for __I$use$fp
    cdrcmple.o(.text) refers (Special) to iusefp.o(.text) for __I$use$fp
    dunder.o(i.__mathlib_dbl_divzero) refers to ddiv.o(.text) for __aeabi_ddiv
    dunder.o(i.__mathlib_dbl_infnan) refers to dadd.o(.text) for __aeabi_dadd
    dunder.o(i.__mathlib_dbl_infnan2) refers to dadd.o(.text) for __aeabi_dadd
    dunder.o(i.__mathlib_dbl_invalid) refers to ddiv.o(.text) for __aeabi_ddiv
    dunder.o(i.__mathlib_dbl_overflow) refers to dmul.o(.text) for __aeabi_dmul
    dunder.o(i.__mathlib_dbl_posinfnan) refers to dmul.o(.text) for __aeabi_dmul
    dunder.o(i.__mathlib_dbl_underflow) refers to dmul.o(.text) for __aeabi_dmul
    fpclassify.o(i.__ARM_fpclassify) refers (Special) to iusefp.o(.text) for __I$use$fp
    poly.o(i.__kernel_poly) refers (Special) to iusefp.o(.text) for __I$use$fp
    poly.o(i.__kernel_poly) refers to dmul.o(.text) for __aeabi_dmul
    poly.o(i.__kernel_poly) refers to dadd.o(.text) for __aeabi_dadd
    qnan.o(.constdata) refers (Special) to iusefp.o(.text) for __I$use$fp
    entry2.o(.ARM.Collect$$$$00000001) refers to entry2.o(.ARM.Collect$$$$00002712) for __lit__00000000
    entry2.o(.ARM.Collect$$$$00002712) refers to startup_stm32f40_41xxx.o(STACK) for __initial_sp
    entry2.o(__vectab_stack_and_reset_area) refers to startup_stm32f40_41xxx.o(STACK) for __initial_sp
    entry2.o(__vectab_stack_and_reset_area) refers to entry.o(.ARM.Collect$$$$00000000) for __main
    entry5.o(.ARM.Collect$$$$00000004) refers to init.o(.text) for __scatterload
    entry9a.o(.ARM.Collect$$$$0000000B) refers to main.o(.text) for main
    entry9b.o(.ARM.Collect$$$$0000000C) refers to main.o(.text) for main
    uldiv.o(.text) refers to llushr.o(.text) for __aeabi_llsr
    uldiv.o(.text) refers to llshl.o(.text) for __aeabi_llsl
    errno.o(i.__aeabi_errno_addr) refers to errno.o(.data) for .data
    errno.o(i.__read_errno) refers to errno.o(.data) for .data
    errno.o(i.__set_errno) refers to errno.o(.data) for .data
    strtol.o(.text) refers to ctype_o.o(.text) for __rt_ctype_table
    strtol.o(.text) refers to _strtoul.o(.text) for _strtoul
    strtol.o(.text) refers to errno.o(i.__aeabi_errno_addr) for __aeabi_errno_addr
    depilogue.o(.text) refers to llshl.o(.text) for __aeabi_llsl
    depilogue.o(.text) refers to llushr.o(.text) for __aeabi_llsr
    ddiv.o(.text) refers to depilogue.o(.text) for _double_round
    dsqrt.o(.text) refers to llushr.o(.text) for __aeabi_llsr
    dsqrt.o(.text) refers to depilogue.o(.text) for _double_round
    dfixul.o(.text) refers to llushr.o(.text) for __aeabi_llsr
    dfixul.o(.text) refers to llshl.o(.text) for __aeabi_llsl
    init.o(.text) refers to entry5.o(.ARM.Collect$$$$00000004) for __main_after_scatterload
    ctype_o.o(.text) refers to ctype_o.o(.constdata) for .constdata
    ctype_o.o(.constdata) refers to ctype_o.o(.constdata) for __ctype_table
    isalnum_o.o(.text) refers to ctype_o.o(.text) for __rt_ctype_table
    isalpha_o.o(.text) refers to ctype_o.o(.text) for __rt_ctype_table
    isblank_o.o(.text) refers to ctype_o.o(.constdata) for __ctype_table
    iscntrl_o.o(.text) refers to ctype_o.o(.text) for __rt_ctype_table
    isdigit_o.o(.text) refers to ctype_o.o(.text) for __rt_ctype_table
    isgraph_o.o(.text) refers to ctype_o.o(.text) for __rt_ctype_table
    islower_o.o(.text) refers to ctype_o.o(.text) for __rt_ctype_table
    isprint_o.o(.text) refers to ctype_o.o(.text) for __rt_ctype_table
    ispunct_o.o(.text) refers to ctype_o.o(.text) for __rt_ctype_table
    isspace_o.o(.text) refers to ctype_o.o(.text) for __rt_ctype_table
    isupper_o.o(.text) refers to ctype_o.o(.text) for __rt_ctype_table
    isxdigit_o.o(.text) refers to ctype_o.o(.text) for __rt_ctype_table
    _strtoul.o(.text) refers to _chval.o(.text) for _chval
    _strtoul.o(.text) refers to errno.o(i.__aeabi_errno_addr) for __aeabi_errno_addr


==============================================================================

Removing Unused input sections from the image.

    Removing main.o(.rev16_text), (4 bytes).
    Removing main.o(.revsh_text), (4 bytes).
    Removing stm32f4xx_it.o(.rev16_text), (4 bytes).
    Removing stm32f4xx_it.o(.revsh_text), (4 bytes).
    Removing system_stm32f4xx.o(.rev16_text), (4 bytes).
    Removing system_stm32f4xx.o(.revsh_text), (4 bytes).
    Removing led.o(.rev16_text), (4 bytes).
    Removing led.o(.revsh_text), (4 bytes).
    Removing lcd.o(.rev16_text), (4 bytes).
    Removing lcd.o(.revsh_text), (4 bytes).
    Removing key.o(.rev16_text), (4 bytes).
    Removing key.o(.revsh_text), (4 bytes).
    Removing myiic.o(.rev16_text), (4 bytes).
    Removing myiic.o(.revsh_text), (4 bytes).
    Removing 24cxx.o(.rev16_text), (4 bytes).
    Removing 24cxx.o(.revsh_text), (4 bytes).
    Removing ctiic.o(.rev16_text), (4 bytes).
    Removing ctiic.o(.revsh_text), (4 bytes).
    Removing ft5206.o(.rev16_text), (4 bytes).
    Removing ft5206.o(.revsh_text), (4 bytes).
    Removing gt9147.o(.rev16_text), (4 bytes).
    Removing gt9147.o(.revsh_text), (4 bytes).
    Removing ott2001a.o(.rev16_text), (4 bytes).
    Removing ott2001a.o(.revsh_text), (4 bytes).
    Removing touch.o(.rev16_text), (4 bytes).
    Removing touch.o(.revsh_text), (4 bytes).
    Removing sg90.o(.rev16_text), (4 bytes).
    Removing sg90.o(.revsh_text), (4 bytes).
    Removing beep.o(.rev16_text), (4 bytes).
    Removing beep.o(.revsh_text), (4 bytes).
    Removing rc522.o(.rev16_text), (4 bytes).
    Removing rc522.o(.revsh_text), (4 bytes).
    Removing usart2.o(.rev16_text), (4 bytes).
    Removing usart2.o(.revsh_text), (4 bytes).
    Removing timer.o(.rev16_text), (4 bytes).
    Removing timer.o(.revsh_text), (4 bytes).
    Removing as608.o(.rev16_text), (4 bytes).
    Removing as608.o(.revsh_text), (4 bytes).
    Removing esp8266.o(.rev16_text), (4 bytes).
    Removing esp8266.o(.revsh_text), (4 bytes).
    Removing usart3.o(.rev16_text), (4 bytes).
    Removing usart3.o(.revsh_text), (4 bytes).
    Removing usart3.o(.data), (4 bytes).
    Removing cjson.o(.text), (7002 bytes).
    Removing cjson.o(.constdata), (7 bytes).
    Removing cjson.o(.data), (12 bytes).
    Removing onenet.o(.rev16_text), (4 bytes).
    Removing onenet.o(.revsh_text), (4 bytes).
    Removing stream_buffer.o(.text), (2532 bytes).
    Removing misc.o(.rev16_text), (4 bytes).
    Removing misc.o(.revsh_text), (4 bytes).
    Removing stm32f4xx_adc.o(.rev16_text), (4 bytes).
    Removing stm32f4xx_adc.o(.revsh_text), (4 bytes).
    Removing stm32f4xx_adc.o(.text), (1124 bytes).
    Removing stm32f4xx_can.o(.rev16_text), (4 bytes).
    Removing stm32f4xx_can.o(.revsh_text), (4 bytes).
    Removing stm32f4xx_can.o(.text), (2544 bytes).
    Removing stm32f4xx_crc.o(.rev16_text), (4 bytes).
    Removing stm32f4xx_crc.o(.revsh_text), (4 bytes).
    Removing stm32f4xx_crc.o(.text), (72 bytes).
    Removing stm32f4xx_cryp.o(.rev16_text), (4 bytes).
    Removing stm32f4xx_cryp.o(.revsh_text), (4 bytes).
    Removing stm32f4xx_cryp.o(.text), (856 bytes).
    Removing stm32f4xx_cryp_aes.o(.rev16_text), (4 bytes).
    Removing stm32f4xx_cryp_aes.o(.revsh_text), (4 bytes).
    Removing stm32f4xx_cryp_aes.o(.text), (4586 bytes).
    Removing stm32f4xx_cryp_des.o(.rev16_text), (4 bytes).
    Removing stm32f4xx_cryp_des.o(.revsh_text), (4 bytes).
    Removing stm32f4xx_cryp_des.o(.text), (472 bytes).
    Removing stm32f4xx_cryp_tdes.o(.rev16_text), (4 bytes).
    Removing stm32f4xx_cryp_tdes.o(.revsh_text), (4 bytes).
    Removing stm32f4xx_cryp_tdes.o(.text), (536 bytes).
    Removing stm32f4xx_dac.o(.rev16_text), (4 bytes).
    Removing stm32f4xx_dac.o(.revsh_text), (4 bytes).
    Removing stm32f4xx_dac.o(.text), (528 bytes).
    Removing stm32f4xx_dbgmcu.o(.rev16_text), (4 bytes).
    Removing stm32f4xx_dbgmcu.o(.revsh_text), (4 bytes).
    Removing stm32f4xx_dbgmcu.o(.text), (100 bytes).
    Removing stm32f4xx_dcmi.o(.rev16_text), (4 bytes).
    Removing stm32f4xx_dcmi.o(.revsh_text), (4 bytes).
    Removing stm32f4xx_dcmi.o(.text), (396 bytes).
    Removing stm32f4xx_dma2d.o(.rev16_text), (4 bytes).
    Removing stm32f4xx_dma2d.o(.revsh_text), (4 bytes).
    Removing stm32f4xx_dma2d.o(.text), (948 bytes).
    Removing stm32f4xx_dma.o(.rev16_text), (4 bytes).
    Removing stm32f4xx_dma.o(.revsh_text), (4 bytes).
    Removing stm32f4xx_dma.o(.text), (936 bytes).
    Removing stm32f4xx_exti.o(.rev16_text), (4 bytes).
    Removing stm32f4xx_exti.o(.revsh_text), (4 bytes).
    Removing stm32f4xx_exti.o(.text), (272 bytes).
    Removing stm32f4xx_flash.o(.rev16_text), (4 bytes).
    Removing stm32f4xx_flash.o(.revsh_text), (4 bytes).
    Removing stm32f4xx_flash.o(.text), (1684 bytes).
    Removing stm32f4xx_flash_ramfunc.o(.rev16_text), (4 bytes).
    Removing stm32f4xx_flash_ramfunc.o(.revsh_text), (4 bytes).
    Removing stm32f4xx_flash_ramfunc.o(.text), (64 bytes).
    Removing stm32f4xx_fsmc.o(.rev16_text), (4 bytes).
    Removing stm32f4xx_fsmc.o(.revsh_text), (4 bytes).
    Removing stm32f4xx_gpio.o(.rev16_text), (4 bytes).
    Removing stm32f4xx_gpio.o(.revsh_text), (4 bytes).
    Removing stm32f4xx_hash.o(.rev16_text), (4 bytes).
    Removing stm32f4xx_hash.o(.revsh_text), (4 bytes).
    Removing stm32f4xx_hash.o(.text), (552 bytes).
    Removing stm32f4xx_hash_md5.o(.rev16_text), (4 bytes).
    Removing stm32f4xx_hash_md5.o(.revsh_text), (4 bytes).
    Removing stm32f4xx_hash_md5.o(.text), (534 bytes).
    Removing stm32f4xx_hash_sha1.o(.rev16_text), (4 bytes).
    Removing stm32f4xx_hash_sha1.o(.revsh_text), (4 bytes).
    Removing stm32f4xx_hash_sha1.o(.text), (548 bytes).
    Removing stm32f4xx_i2c.o(.rev16_text), (4 bytes).
    Removing stm32f4xx_i2c.o(.revsh_text), (4 bytes).
    Removing stm32f4xx_i2c.o(.text), (1110 bytes).
    Removing stm32f4xx_iwdg.o(.rev16_text), (4 bytes).
    Removing stm32f4xx_iwdg.o(.revsh_text), (4 bytes).
    Removing stm32f4xx_iwdg.o(.text), (64 bytes).
    Removing stm32f4xx_ltdc.o(.rev16_text), (4 bytes).
    Removing stm32f4xx_ltdc.o(.revsh_text), (4 bytes).
    Removing stm32f4xx_ltdc.o(.text), (1672 bytes).
    Removing stm32f4xx_pwr.o(.rev16_text), (4 bytes).
    Removing stm32f4xx_pwr.o(.revsh_text), (4 bytes).
    Removing stm32f4xx_pwr.o(.text), (364 bytes).
    Removing stm32f4xx_rcc.o(.rev16_text), (4 bytes).
    Removing stm32f4xx_rcc.o(.revsh_text), (4 bytes).
    Removing stm32f4xx_rng.o(.rev16_text), (4 bytes).
    Removing stm32f4xx_rng.o(.revsh_text), (4 bytes).
    Removing stm32f4xx_rng.o(.text), (160 bytes).
    Removing stm32f4xx_rtc.o(.rev16_text), (4 bytes).
    Removing stm32f4xx_rtc.o(.revsh_text), (4 bytes).
    Removing stm32f4xx_rtc.o(.text), (3432 bytes).
    Removing stm32f4xx_sai.o(.rev16_text), (4 bytes).
    Removing stm32f4xx_sai.o(.revsh_text), (4 bytes).
    Removing stm32f4xx_sai.o(.text), (524 bytes).
    Removing stm32f4xx_sdio.o(.rev16_text), (4 bytes).
    Removing stm32f4xx_sdio.o(.revsh_text), (4 bytes).
    Removing stm32f4xx_sdio.o(.text), (476 bytes).
    Removing stm32f4xx_spi.o(.rev16_text), (4 bytes).
    Removing stm32f4xx_spi.o(.revsh_text), (4 bytes).
    Removing stm32f4xx_spi.o(.text), (1152 bytes).
    Removing stm32f4xx_syscfg.o(.rev16_text), (4 bytes).
    Removing stm32f4xx_syscfg.o(.revsh_text), (4 bytes).
    Removing stm32f4xx_syscfg.o(.text), (148 bytes).
    Removing stm32f4xx_tim.o(.rev16_text), (4 bytes).
    Removing stm32f4xx_tim.o(.revsh_text), (4 bytes).
    Removing stm32f4xx_usart.o(.rev16_text), (4 bytes).
    Removing stm32f4xx_usart.o(.revsh_text), (4 bytes).
    Removing stm32f4xx_wwdg.o(.rev16_text), (4 bytes).
    Removing stm32f4xx_wwdg.o(.revsh_text), (4 bytes).
    Removing stm32f4xx_wwdg.o(.text), (144 bytes).
    Removing delay.o(.rev16_text), (4 bytes).
    Removing delay.o(.revsh_text), (4 bytes).
    Removing sys.o(.rev16_text), (4 bytes).
    Removing sys.o(.revsh_text), (4 bytes).
    Removing sys.o(.emb_text), (16 bytes).
    Removing usart_1.o(.rev16_text), (4 bytes).
    Removing usart_1.o(.revsh_text), (4 bytes).
    Removing dfixi.o(.text), (62 bytes).
    Removing dneg.o(.text), (6 bytes).
    Removing dscalb.o(.text), (46 bytes).

158 unused section(s) (total 36165 bytes) removed from the image.

==============================================================================

Image Symbol Table

    Local Symbols

    Symbol Name                              Value     Ov Type        Size  Object(Section)

    ../clib/../cmprslib/zerorunl2.c          0x00000000   Number         0  __dczerorl2.o ABSOLUTE
    ../clib/microlib/ctype/ctype.c           0x00000000   Number         0  isalpha_o.o ABSOLUTE
    ../clib/microlib/ctype/ctype.c           0x00000000   Number         0  isspace_o.o ABSOLUTE
    ../clib/microlib/ctype/ctype.c           0x00000000   Number         0  ispunct_o.o ABSOLUTE
    ../clib/microlib/ctype/ctype.c           0x00000000   Number         0  isprint_o.o ABSOLUTE
    ../clib/microlib/ctype/ctype.c           0x00000000   Number         0  isalnum_o.o ABSOLUTE
    ../clib/microlib/ctype/ctype.c           0x00000000   Number         0  ctype_o.o ABSOLUTE
    ../clib/microlib/ctype/ctype.c           0x00000000   Number         0  islower_o.o ABSOLUTE
    ../clib/microlib/ctype/ctype.c           0x00000000   Number         0  isgraph_o.o ABSOLUTE
    ../clib/microlib/ctype/ctype.c           0x00000000   Number         0  isdigit_o.o ABSOLUTE
    ../clib/microlib/ctype/ctype.c           0x00000000   Number         0  isxdigit_o.o ABSOLUTE
    ../clib/microlib/ctype/ctype.c           0x00000000   Number         0  isupper_o.o ABSOLUTE
    ../clib/microlib/ctype/ctype.c           0x00000000   Number         0  iscntrl_o.o ABSOLUTE
    ../clib/microlib/ctype/ctype.c           0x00000000   Number         0  isblank_o.o ABSOLUTE
    ../clib/microlib/ctype/tolower.c         0x00000000   Number         0  tolower.o ABSOLUTE
    ../clib/microlib/division.c              0x00000000   Number         0  uldiv.o ABSOLUTE
    ../clib/microlib/division.c              0x00000000   Number         0  uidiv.o ABSOLUTE
    ../clib/microlib/errno.c                 0x00000000   Number         0  errno.o ABSOLUTE
    ../clib/microlib/init/entry.s            0x00000000   Number         0  entry2.o ABSOLUTE
    ../clib/microlib/init/entry.s            0x00000000   Number         0  entry5.o ABSOLUTE
    ../clib/microlib/init/entry.s            0x00000000   Number         0  entry7a.o ABSOLUTE
    ../clib/microlib/init/entry.s            0x00000000   Number         0  entry7b.o ABSOLUTE
    ../clib/microlib/init/entry.s            0x00000000   Number         0  entry.o ABSOLUTE
    ../clib/microlib/init/entry.s            0x00000000   Number         0  entry8a.o ABSOLUTE
    ../clib/microlib/init/entry.s            0x00000000   Number         0  entry8b.o ABSOLUTE
    ../clib/microlib/init/entry.s            0x00000000   Number         0  entry9b.o ABSOLUTE
    ../clib/microlib/init/entry.s            0x00000000   Number         0  entry10a.o ABSOLUTE
    ../clib/microlib/init/entry.s            0x00000000   Number         0  entry10b.o ABSOLUTE
    ../clib/microlib/init/entry.s            0x00000000   Number         0  entry11a.o ABSOLUTE
    ../clib/microlib/init/entry.s            0x00000000   Number         0  entry9a.o ABSOLUTE
    ../clib/microlib/init/entry.s            0x00000000   Number         0  entry11b.o ABSOLUTE
    ../clib/microlib/init/entry.s            0x00000000   Number         0  entry12a.o ABSOLUTE
    ../clib/microlib/init/entry.s            0x00000000   Number         0  entry12b.o ABSOLUTE
    ../clib/microlib/longlong.c              0x00000000   Number         0  llshl.o ABSOLUTE
    ../clib/microlib/longlong.c              0x00000000   Number         0  llushr.o ABSOLUTE
    ../clib/microlib/longlong.c              0x00000000   Number         0  llsshr.o ABSOLUTE
    ../clib/microlib/malloc/malloc.c         0x00000000   Number         0  malloc.o ABSOLUTE
    ../clib/microlib/malloc/malloc.c         0x00000000   Number         0  mallocr.o ABSOLUTE
    ../clib/microlib/malloc/malloc.c         0x00000000   Number         0  malloca.o ABSOLUTE
    ../clib/microlib/malloc/malloc.c         0x00000000   Number         0  mallocra.o ABSOLUTE
    ../clib/microlib/malloc/mvars.c          0x00000000   Number         0  mvars.o ABSOLUTE
    ../clib/microlib/printf/printf.c         0x00000000   Number         0  printfb.o ABSOLUTE
    ../clib/microlib/printf/printf.c         0x00000000   Number         0  printf4.o ABSOLUTE
    ../clib/microlib/printf/printf.c         0x00000000   Number         0  printfa.o ABSOLUTE
    ../clib/microlib/printf/printf.c         0x00000000   Number         0  printf8.o ABSOLUTE
    ../clib/microlib/printf/printf.c         0x00000000   Number         0  printf7.o ABSOLUTE
    ../clib/microlib/printf/printf.c         0x00000000   Number         0  printf6.o ABSOLUTE
    ../clib/microlib/printf/printf.c         0x00000000   Number         0  printf5.o ABSOLUTE
    ../clib/microlib/printf/printf.c         0x00000000   Number         0  printf3.o ABSOLUTE
    ../clib/microlib/printf/printf.c         0x00000000   Number         0  printf2.o ABSOLUTE
    ../clib/microlib/printf/printf.c         0x00000000   Number         0  printf1.o ABSOLUTE
    ../clib/microlib/printf/printf.c         0x00000000   Number         0  printf0.o ABSOLUTE
    ../clib/microlib/printf/stubs.s          0x00000000   Number         0  stubs.o ABSOLUTE
    ../clib/microlib/string/memcpy.c         0x00000000   Number         0  memcpyb.o ABSOLUTE
    ../clib/microlib/string/memcpy.c         0x00000000   Number         0  memcpya.o ABSOLUTE
    ../clib/microlib/string/memset.c         0x00000000   Number         0  memseta.o ABSOLUTE
    ../clib/microlib/string/memset.c         0x00000000   Number         0  memset.o ABSOLUTE
    ../clib/microlib/string/strchr.c         0x00000000   Number         0  strchr.o ABSOLUTE
    ../clib/microlib/string/strcmp.c         0x00000000   Number         0  strcmp.o ABSOLUTE
    ../clib/microlib/string/strcpy.c         0x00000000   Number         0  strcpy.o ABSOLUTE
    ../clib/microlib/string/strlen.c         0x00000000   Number         0  strlen.o ABSOLUTE
    ../clib/microlib/string/strncat.c        0x00000000   Number         0  strncat.o ABSOLUTE
    ../clib/microlib/string/strncmp.c        0x00000000   Number         0  strncmp.o ABSOLUTE
    ../clib/microlib/string/strstr.c         0x00000000   Number         0  strstr.o ABSOLUTE
    ../clib/microlib/stubs.s                 0x00000000   Number         0  iusefp.o ABSOLUTE
    ../clib/microlib/stubs.s                 0x00000000   Number         0  useno.o ABSOLUTE
    ../clib/scanf.c                          0x00000000   Number         0  _chval.o ABSOLUTE
    ../clib/scanf.c                          0x00000000   Number         0  _strtoul.o ABSOLUTE
    ../clib/scanf.c                          0x00000000   Number         0  strtol.o ABSOLUTE
    ../clib/scanf.c                          0x00000000   Number         0  atoi.o ABSOLUTE
    ../fplib/microlib/f2d.c                  0x00000000   Number         0  f2d.o ABSOLUTE
    ../fplib/microlib/fpadd.c                0x00000000   Number         0  dadd.o ABSOLUTE
    ../fplib/microlib/fpdiv.c                0x00000000   Number         0  ddiv.o ABSOLUTE
    ../fplib/microlib/fpepilogue.c           0x00000000   Number         0  depilogue.o ABSOLUTE
    ../fplib/microlib/fpfix.c                0x00000000   Number         0  dfixul.o ABSOLUTE
    ../fplib/microlib/fpfix.c                0x00000000   Number         0  dfixui.o ABSOLUTE
    ../fplib/microlib/fpfix.c                0x00000000   Number         0  dfixi.o ABSOLUTE
    ../fplib/microlib/fpflt.c                0x00000000   Number         0  dfltui.o ABSOLUTE
    ../fplib/microlib/fpflt.c                0x00000000   Number         0  dflti.o ABSOLUTE
    ../fplib/microlib/fpmul.c                0x00000000   Number         0  dmul.o ABSOLUTE
    ../fplib/microlib/fpneg.c                0x00000000   Number         0  dneg.o ABSOLUTE
    ../fplib/microlib/fpscalb.c              0x00000000   Number         0  dscalb.o ABSOLUTE
    ../fplib/microlib/fpsqrt.c               0x00000000   Number         0  dsqrt.o ABSOLUTE
    ../mathlib/dunder.c                      0x00000000   Number         0  dunder.o ABSOLUTE
    ../mathlib/fabs.c                        0x00000000   Number         0  fabs.o ABSOLUTE
    ../mathlib/floor.c                       0x00000000   Number         0  floor.o ABSOLUTE
    ../mathlib/fpclassify.c                  0x00000000   Number         0  fpclassify.o ABSOLUTE
    ../mathlib/poly.c                        0x00000000   Number         0  poly.o ABSOLUTE
    ../mathlib/pow.c                         0x00000000   Number         0  pow.o ABSOLUTE
    ../mathlib/pow.c                         0x00000000   Number         0  pow_x.o ABSOLUTE
    ../mathlib/qnan.c                        0x00000000   Number         0  qnan.o ABSOLUTE
    ../mathlib/sqrt.c                        0x00000000   Number         0  sqrt.o ABSOLUTE
    ../mathlib/sqrt.c                        0x00000000   Number         0  sqrt_x.o ABSOLUTE
    ..\CORE\startup_stm32f40_41xxx.s         0x00000000   Number         0  startup_stm32f40_41xxx.o ABSOLUTE
    ..\ESP8266\esp8266.c                     0x00000000   Number         0  esp8266.o ABSOLUTE
    ..\ESP8266\usart3.c                      0x00000000   Number         0  usart3.o ABSOLUTE
    ..\FWLIB\src\misc.c                      0x00000000   Number         0  misc.o ABSOLUTE
    ..\FWLIB\src\stm32f4xx_adc.c             0x00000000   Number         0  stm32f4xx_adc.o ABSOLUTE
    ..\FWLIB\src\stm32f4xx_can.c             0x00000000   Number         0  stm32f4xx_can.o ABSOLUTE
    ..\FWLIB\src\stm32f4xx_crc.c             0x00000000   Number         0  stm32f4xx_crc.o ABSOLUTE
    ..\FWLIB\src\stm32f4xx_cryp.c            0x00000000   Number         0  stm32f4xx_cryp.o ABSOLUTE
    ..\FWLIB\src\stm32f4xx_cryp_aes.c        0x00000000   Number         0  stm32f4xx_cryp_aes.o ABSOLUTE
    ..\FWLIB\src\stm32f4xx_cryp_des.c        0x00000000   Number         0  stm32f4xx_cryp_des.o ABSOLUTE
    ..\FWLIB\src\stm32f4xx_cryp_tdes.c       0x00000000   Number         0  stm32f4xx_cryp_tdes.o ABSOLUTE
    ..\FWLIB\src\stm32f4xx_dac.c             0x00000000   Number         0  stm32f4xx_dac.o ABSOLUTE
    ..\FWLIB\src\stm32f4xx_dbgmcu.c          0x00000000   Number         0  stm32f4xx_dbgmcu.o ABSOLUTE
    ..\FWLIB\src\stm32f4xx_dcmi.c            0x00000000   Number         0  stm32f4xx_dcmi.o ABSOLUTE
    ..\FWLIB\src\stm32f4xx_dma.c             0x00000000   Number         0  stm32f4xx_dma.o ABSOLUTE
    ..\FWLIB\src\stm32f4xx_dma2d.c           0x00000000   Number         0  stm32f4xx_dma2d.o ABSOLUTE
    ..\FWLIB\src\stm32f4xx_exti.c            0x00000000   Number         0  stm32f4xx_exti.o ABSOLUTE
    ..\FWLIB\src\stm32f4xx_flash.c           0x00000000   Number         0  stm32f4xx_flash.o ABSOLUTE
    ..\FWLIB\src\stm32f4xx_flash_ramfunc.c   0x00000000   Number         0  stm32f4xx_flash_ramfunc.o ABSOLUTE
    ..\FWLIB\src\stm32f4xx_fsmc.c            0x00000000   Number         0  stm32f4xx_fsmc.o ABSOLUTE
    ..\FWLIB\src\stm32f4xx_gpio.c            0x00000000   Number         0  stm32f4xx_gpio.o ABSOLUTE
    ..\FWLIB\src\stm32f4xx_hash.c            0x00000000   Number         0  stm32f4xx_hash.o ABSOLUTE
    ..\FWLIB\src\stm32f4xx_hash_md5.c        0x00000000   Number         0  stm32f4xx_hash_md5.o ABSOLUTE
    ..\FWLIB\src\stm32f4xx_hash_sha1.c       0x00000000   Number         0  stm32f4xx_hash_sha1.o ABSOLUTE
    ..\FWLIB\src\stm32f4xx_i2c.c             0x00000000   Number         0  stm32f4xx_i2c.o ABSOLUTE
    ..\FWLIB\src\stm32f4xx_iwdg.c            0x00000000   Number         0  stm32f4xx_iwdg.o ABSOLUTE
    ..\FWLIB\src\stm32f4xx_ltdc.c            0x00000000   Number         0  stm32f4xx_ltdc.o ABSOLUTE
    ..\FWLIB\src\stm32f4xx_pwr.c             0x00000000   Number         0  stm32f4xx_pwr.o ABSOLUTE
    ..\FWLIB\src\stm32f4xx_rcc.c             0x00000000   Number         0  stm32f4xx_rcc.o ABSOLUTE
    ..\FWLIB\src\stm32f4xx_rng.c             0x00000000   Number         0  stm32f4xx_rng.o ABSOLUTE
    ..\FWLIB\src\stm32f4xx_rtc.c             0x00000000   Number         0  stm32f4xx_rtc.o ABSOLUTE
    ..\FWLIB\src\stm32f4xx_sai.c             0x00000000   Number         0  stm32f4xx_sai.o ABSOLUTE
    ..\FWLIB\src\stm32f4xx_sdio.c            0x00000000   Number         0  stm32f4xx_sdio.o ABSOLUTE
    ..\FWLIB\src\stm32f4xx_spi.c             0x00000000   Number         0  stm32f4xx_spi.o ABSOLUTE
    ..\FWLIB\src\stm32f4xx_syscfg.c          0x00000000   Number         0  stm32f4xx_syscfg.o ABSOLUTE
    ..\FWLIB\src\stm32f4xx_tim.c             0x00000000   Number         0  stm32f4xx_tim.o ABSOLUTE
    ..\FWLIB\src\stm32f4xx_usart.c           0x00000000   Number         0  stm32f4xx_usart.o ABSOLUTE
    ..\FWLIB\src\stm32f4xx_wwdg.c            0x00000000   Number         0  stm32f4xx_wwdg.o ABSOLUTE
    ..\FreeRTOS\croutine.c                   0x00000000   Number         0  croutine.o ABSOLUTE
    ..\FreeRTOS\event_groups.c               0x00000000   Number         0  event_groups.o ABSOLUTE
    ..\FreeRTOS\list.c                       0x00000000   Number         0  list.o ABSOLUTE
    ..\FreeRTOS\portable\MemMang\heap_4.c    0x00000000   Number         0  heap_4.o ABSOLUTE
    ..\FreeRTOS\portable\RVDS\ARM_CM4F\port.c 0x00000000   Number         0  port.o ABSOLUTE
    ..\FreeRTOS\queue.c                      0x00000000   Number         0  queue.o ABSOLUTE
    ..\FreeRTOS\stream_buffer.c              0x00000000   Number         0  stream_buffer.o ABSOLUTE
    ..\FreeRTOS\tasks.c                      0x00000000   Number         0  tasks.o ABSOLUTE
    ..\FreeRTOS\timers.c                     0x00000000   Number         0  timers.o ABSOLUTE
    ..\HARDWARE\24CXX\24cxx.c                0x00000000   Number         0  24cxx.o ABSOLUTE
    ..\HARDWARE\AS608\as608.c                0x00000000   Number         0  as608.o ABSOLUTE
    ..\HARDWARE\BEEP\beep.c                  0x00000000   Number         0  beep.o ABSOLUTE
    ..\HARDWARE\IIC\myiic.c                  0x00000000   Number         0  myiic.o ABSOLUTE
    ..\HARDWARE\KEY\key.c                    0x00000000   Number         0  key.o ABSOLUTE
    ..\HARDWARE\LCD\lcd.c                    0x00000000   Number         0  lcd.o ABSOLUTE
    ..\HARDWARE\LED\led.c                    0x00000000   Number         0  led.o ABSOLUTE
    ..\HARDWARE\RC522\rc522.c                0x00000000   Number         0  rc522.o ABSOLUTE
    ..\HARDWARE\SG90\sg90.c                  0x00000000   Number         0  sg90.o ABSOLUTE
    ..\HARDWARE\TIMER\timer.c                0x00000000   Number         0  timer.o ABSOLUTE
    ..\HARDWARE\TOUCH\ctiic.c                0x00000000   Number         0  ctiic.o ABSOLUTE
    ..\HARDWARE\TOUCH\ft5206.c               0x00000000   Number         0  ft5206.o ABSOLUTE
    ..\HARDWARE\TOUCH\gt9147.c               0x00000000   Number         0  gt9147.o ABSOLUTE
    ..\HARDWARE\TOUCH\ott2001a.c             0x00000000   Number         0  ott2001a.o ABSOLUTE
    ..\HARDWARE\TOUCH\touch.c                0x00000000   Number         0  touch.o ABSOLUTE
    ..\HARDWARE\USART2\usart2.c              0x00000000   Number         0  usart2.o ABSOLUTE
    ..\NET\MQTT\MqttKit.c                    0x00000000   Number         0  mqttkit.o ABSOLUTE
    ..\NET\OneNet\onenet.c                   0x00000000   Number         0  onenet.o ABSOLUTE
    ..\NET\cJSON\cJSON.c                     0x00000000   Number         0  cjson.o ABSOLUTE
    ..\SYSTEM\delay\delay.c                  0x00000000   Number         0  delay.o ABSOLUTE
    ..\SYSTEM\sys\sys.c                      0x00000000   Number         0  sys.o ABSOLUTE
    ..\SYSTEM\usart\usart.c                  0x00000000   Number         0  usart_1.o ABSOLUTE
    ..\\ESP8266\\esp8266.c                   0x00000000   Number         0  esp8266.o ABSOLUTE
    ..\\ESP8266\\usart3.c                    0x00000000   Number         0  usart3.o ABSOLUTE
    ..\\FWLIB\\src\\misc.c                   0x00000000   Number         0  misc.o ABSOLUTE
    ..\\FWLIB\\src\\stm32f4xx_adc.c          0x00000000   Number         0  stm32f4xx_adc.o ABSOLUTE
    ..\\FWLIB\\src\\stm32f4xx_can.c          0x00000000   Number         0  stm32f4xx_can.o ABSOLUTE
    ..\\FWLIB\\src\\stm32f4xx_crc.c          0x00000000   Number         0  stm32f4xx_crc.o ABSOLUTE
    ..\\FWLIB\\src\\stm32f4xx_cryp.c         0x00000000   Number         0  stm32f4xx_cryp.o ABSOLUTE
    ..\\FWLIB\\src\\stm32f4xx_cryp_aes.c     0x00000000   Number         0  stm32f4xx_cryp_aes.o ABSOLUTE
    ..\\FWLIB\\src\\stm32f4xx_cryp_des.c     0x00000000   Number         0  stm32f4xx_cryp_des.o ABSOLUTE
    ..\\FWLIB\\src\\stm32f4xx_cryp_tdes.c    0x00000000   Number         0  stm32f4xx_cryp_tdes.o ABSOLUTE
    ..\\FWLIB\\src\\stm32f4xx_dac.c          0x00000000   Number         0  stm32f4xx_dac.o ABSOLUTE
    ..\\FWLIB\\src\\stm32f4xx_dbgmcu.c       0x00000000   Number         0  stm32f4xx_dbgmcu.o ABSOLUTE
    ..\\FWLIB\\src\\stm32f4xx_dcmi.c         0x00000000   Number         0  stm32f4xx_dcmi.o ABSOLUTE
    ..\\FWLIB\\src\\stm32f4xx_dma.c          0x00000000   Number         0  stm32f4xx_dma.o ABSOLUTE
    ..\\FWLIB\\src\\stm32f4xx_dma2d.c        0x00000000   Number         0  stm32f4xx_dma2d.o ABSOLUTE
    ..\\FWLIB\\src\\stm32f4xx_exti.c         0x00000000   Number         0  stm32f4xx_exti.o ABSOLUTE
    ..\\FWLIB\\src\\stm32f4xx_flash.c        0x00000000   Number         0  stm32f4xx_flash.o ABSOLUTE
    ..\\FWLIB\\src\\stm32f4xx_flash_ramfunc.c 0x00000000   Number         0  stm32f4xx_flash_ramfunc.o ABSOLUTE
    ..\\FWLIB\\src\\stm32f4xx_fsmc.c         0x00000000   Number         0  stm32f4xx_fsmc.o ABSOLUTE
    ..\\FWLIB\\src\\stm32f4xx_gpio.c         0x00000000   Number         0  stm32f4xx_gpio.o ABSOLUTE
    ..\\FWLIB\\src\\stm32f4xx_hash.c         0x00000000   Number         0  stm32f4xx_hash.o ABSOLUTE
    ..\\FWLIB\\src\\stm32f4xx_hash_md5.c     0x00000000   Number         0  stm32f4xx_hash_md5.o ABSOLUTE
    ..\\FWLIB\\src\\stm32f4xx_hash_sha1.c    0x00000000   Number         0  stm32f4xx_hash_sha1.o ABSOLUTE
    ..\\FWLIB\\src\\stm32f4xx_i2c.c          0x00000000   Number         0  stm32f4xx_i2c.o ABSOLUTE
    ..\\FWLIB\\src\\stm32f4xx_iwdg.c         0x00000000   Number         0  stm32f4xx_iwdg.o ABSOLUTE
    ..\\FWLIB\\src\\stm32f4xx_ltdc.c         0x00000000   Number         0  stm32f4xx_ltdc.o ABSOLUTE
    ..\\FWLIB\\src\\stm32f4xx_pwr.c          0x00000000   Number         0  stm32f4xx_pwr.o ABSOLUTE
    ..\\FWLIB\\src\\stm32f4xx_rcc.c          0x00000000   Number         0  stm32f4xx_rcc.o ABSOLUTE
    ..\\FWLIB\\src\\stm32f4xx_rng.c          0x00000000   Number         0  stm32f4xx_rng.o ABSOLUTE
    ..\\FWLIB\\src\\stm32f4xx_rtc.c          0x00000000   Number         0  stm32f4xx_rtc.o ABSOLUTE
    ..\\FWLIB\\src\\stm32f4xx_sai.c          0x00000000   Number         0  stm32f4xx_sai.o ABSOLUTE
    ..\\FWLIB\\src\\stm32f4xx_sdio.c         0x00000000   Number         0  stm32f4xx_sdio.o ABSOLUTE
    ..\\FWLIB\\src\\stm32f4xx_spi.c          0x00000000   Number         0  stm32f4xx_spi.o ABSOLUTE
    ..\\FWLIB\\src\\stm32f4xx_syscfg.c       0x00000000   Number         0  stm32f4xx_syscfg.o ABSOLUTE
    ..\\FWLIB\\src\\stm32f4xx_tim.c          0x00000000   Number         0  stm32f4xx_tim.o ABSOLUTE
    ..\\FWLIB\\src\\stm32f4xx_usart.c        0x00000000   Number         0  stm32f4xx_usart.o ABSOLUTE
    ..\\FWLIB\\src\\stm32f4xx_wwdg.c         0x00000000   Number         0  stm32f4xx_wwdg.o ABSOLUTE
    ..\\FreeRTOS\\portable\\RVDS\\ARM_CM4F\\port.c 0x00000000   Number         0  port.o ABSOLUTE
    ..\\HARDWARE\\24CXX\\24cxx.c             0x00000000   Number         0  24cxx.o ABSOLUTE
    ..\\HARDWARE\\AS608\\as608.c             0x00000000   Number         0  as608.o ABSOLUTE
    ..\\HARDWARE\\BEEP\\beep.c               0x00000000   Number         0  beep.o ABSOLUTE
    ..\\HARDWARE\\IIC\\myiic.c               0x00000000   Number         0  myiic.o ABSOLUTE
    ..\\HARDWARE\\KEY\\key.c                 0x00000000   Number         0  key.o ABSOLUTE
    ..\\HARDWARE\\LCD\\lcd.c                 0x00000000   Number         0  lcd.o ABSOLUTE
    ..\\HARDWARE\\LED\\led.c                 0x00000000   Number         0  led.o ABSOLUTE
    ..\\HARDWARE\\RC522\\rc522.c             0x00000000   Number         0  rc522.o ABSOLUTE
    ..\\HARDWARE\\SG90\\sg90.c               0x00000000   Number         0  sg90.o ABSOLUTE
    ..\\HARDWARE\\TIMER\\timer.c             0x00000000   Number         0  timer.o ABSOLUTE
    ..\\HARDWARE\\TOUCH\\ctiic.c             0x00000000   Number         0  ctiic.o ABSOLUTE
    ..\\HARDWARE\\TOUCH\\ft5206.c            0x00000000   Number         0  ft5206.o ABSOLUTE
    ..\\HARDWARE\\TOUCH\\gt9147.c            0x00000000   Number         0  gt9147.o ABSOLUTE
    ..\\HARDWARE\\TOUCH\\ott2001a.c          0x00000000   Number         0  ott2001a.o ABSOLUTE
    ..\\HARDWARE\\TOUCH\\touch.c             0x00000000   Number         0  touch.o ABSOLUTE
    ..\\HARDWARE\\USART2\\usart2.c           0x00000000   Number         0  usart2.o ABSOLUTE
    ..\\NET\\OneNet\\onenet.c                0x00000000   Number         0  onenet.o ABSOLUTE
    ..\\SYSTEM\\delay\\delay.c               0x00000000   Number         0  delay.o ABSOLUTE
    ..\\SYSTEM\\sys\\sys.c                   0x00000000   Number         0  sys.o ABSOLUTE
    ..\\SYSTEM\\usart\\usart.c               0x00000000   Number         0  usart_1.o ABSOLUTE
    cdcmple.s                                0x00000000   Number         0  cdcmple.o ABSOLUTE
    cdrcmple.s                               0x00000000   Number         0  cdrcmple.o ABSOLUTE
    dc.s                                     0x00000000   Number         0  dc.o ABSOLUTE
    handlers.s                               0x00000000   Number         0  handlers.o ABSOLUTE
    init.s                                   0x00000000   Number         0  init.o ABSOLUTE
    main.c                                   0x00000000   Number         0  main.o ABSOLUTE
    main.c                                   0x00000000   Number         0  main.o ABSOLUTE
    stm32f4xx_it.c                           0x00000000   Number         0  stm32f4xx_it.o ABSOLUTE
    stm32f4xx_it.c                           0x00000000   Number         0  stm32f4xx_it.o ABSOLUTE
    system_stm32f4xx.c                       0x00000000   Number         0  system_stm32f4xx.o ABSOLUTE
    system_stm32f4xx.c                       0x00000000   Number         0  system_stm32f4xx.o ABSOLUTE
    RESET                                    0x08000000   Section      392  startup_stm32f40_41xxx.o(RESET)
    .ARM.Collect$$$$00000000                 0x08000188   Section        0  entry.o(.ARM.Collect$$$$00000000)
    .ARM.Collect$$$$00000001                 0x08000188   Section        4  entry2.o(.ARM.Collect$$$$00000001)
    .ARM.Collect$$$$00000004                 0x0800018c   Section        4  entry5.o(.ARM.Collect$$$$00000004)
    .ARM.Collect$$$$00000008                 0x08000190   Section        0  entry7b.o(.ARM.Collect$$$$00000008)
    .ARM.Collect$$$$0000000A                 0x08000190   Section        0  entry8b.o(.ARM.Collect$$$$0000000A)
    .ARM.Collect$$$$0000000B                 0x08000190   Section        8  entry9a.o(.ARM.Collect$$$$0000000B)
    .ARM.Collect$$$$0000000E                 0x08000198   Section        4  entry12b.o(.ARM.Collect$$$$0000000E)
    .ARM.Collect$$$$0000000F                 0x0800019c   Section        0  entry10a.o(.ARM.Collect$$$$0000000F)
    .ARM.Collect$$$$00000011                 0x0800019c   Section        0  entry11a.o(.ARM.Collect$$$$00000011)
    .ARM.Collect$$$$00002712                 0x0800019c   Section        4  entry2.o(.ARM.Collect$$$$00002712)
    __lit__00000000                          0x0800019c   Data           4  entry2.o(.ARM.Collect$$$$00002712)
    .emb_text                                0x080001a0   Section      190  port.o(.emb_text)
    $v0                                      0x080001a0   Number         0  port.o(.emb_text)
    .text                                    0x08000260   Section        0  main.o(.text)
    .text                                    0x08000b74   Section        0  stm32f4xx_it.o(.text)
    .text                                    0x08000bd4   Section        0  system_stm32f4xx.o(.text)
    SetSysClock                              0x08000bd5   Thumb Code   220  system_stm32f4xx.o(.text)
    .text                                    0x08000de4   Section       36  startup_stm32f40_41xxx.o(.text)
    $v0                                      0x08000de4   Number         0  startup_stm32f40_41xxx.o(.text)
    .text                                    0x08000e08   Section        0  led.o(.text)
    .text                                    0x08000e48   Section        0  lcd.o(.text)
    .text                                    0x080062ac   Section        0  key.o(.text)
    .text                                    0x080063b0   Section        0  myiic.o(.text)
    .text                                    0x0800660c   Section        0  24cxx.o(.text)
    .text                                    0x08006788   Section        0  ctiic.o(.text)
    .text                                    0x080069dc   Section        0  ft5206.o(.text)
    .text                                    0x08006d08   Section        0  gt9147.o(.text)
    .text                                    0x08007138   Section        0  ott2001a.o(.text)
    .text                                    0x080074c0   Section        0  touch.o(.text)
    .text                                    0x080085a0   Section        0  sg90.o(.text)
    .text                                    0x080086bc   Section        0  beep.o(.text)
    .text                                    0x080086fc   Section        0  rc522.o(.text)
    .text                                    0x08008f90   Section        0  usart2.o(.text)
    .text                                    0x08009114   Section        0  timer.o(.text)
    .text                                    0x08009198   Section        0  as608.o(.text)
    JudgeStr                                 0x08009225   Thumb Code   122  as608.o(.text)
    MYUSART_SendData                         0x0800929f   Thumb Code    22  as608.o(.text)
    SendCheck                                0x080092b5   Thumb Code    18  as608.o(.text)
    Sendcmd                                  0x080092c7   Thumb Code    12  as608.o(.text)
    SendLength                               0x080092d3   Thumb Code    20  as608.o(.text)
    SendFlag                                 0x080092e7   Thumb Code    12  as608.o(.text)
    SendAddr                                 0x080092f3   Thumb Code    46  as608.o(.text)
    SendHead                                 0x08009321   Thumb Code    16  as608.o(.text)
    .text                                    0x08009d88   Section        0  esp8266.o(.text)
    .text                                    0x0800a078   Section        0  usart3.o(.text)
    .text                                    0x0800a234   Section        0  mqttkit.o(.text)
    .text                                    0x0800b030   Section        0  onenet.o(.text)
    .text                                    0x0800b8dc   Section        0  event_groups.o(.text)
    prvTestWaitCondition                     0x0800bad1   Thumb Code    30  event_groups.o(.text)
    .text                                    0x0800bd68   Section        0  list.o(.text)
    .text                                    0x0800bdfc   Section        0  queue.o(.text)
    prvInitialiseNewQueue                    0x0800bed3   Thumb Code    42  queue.o(.text)
    prvUnlockQueue                           0x0800bf63   Thumb Code   126  queue.o(.text)
    prvIsQueueFull                           0x0800bfe1   Thumb Code    30  queue.o(.text)
    prvCopyDataToQueue                       0x0800bfff   Thumb Code   126  queue.o(.text)
    prvInitialiseMutex                       0x0800c221   Thumb Code    30  queue.o(.text)
    prvGetDisinheritPriorityAfterTimeout     0x0800c2ad   Thumb Code    20  queue.o(.text)
    prvIsQueueEmpty                          0x0800c2c1   Thumb Code    26  queue.o(.text)
    prvCopyDataFromQueue                     0x0800c73b   Thumb Code    46  queue.o(.text)
    .text                                    0x0800ce18   Section        0  tasks.o(.text)
    prvInitialiseTaskLists                   0x0800ce19   Thumb Code    70  tasks.o(.text)
    prvAddNewTaskToReadyList                 0x0800ce5f   Thumb Code   206  tasks.o(.text)
    prvInitialiseNewTask                     0x0800cf2d   Thumb Code   224  tasks.o(.text)
    prvResetNextTaskUnblockTime              0x0800d06d   Thumb Code    40  tasks.o(.text)
    prvDeleteTCB                             0x0800d095   Thumb Code    18  tasks.o(.text)
    prvAddCurrentTaskToDelayedList           0x0800d49f   Thumb Code   164  tasks.o(.text)
    prvTaskIsTaskSuspended                   0x0800da1d   Thumb Code    80  tasks.o(.text)
    prvCheckTasksWaitingTermination          0x0800dc33   Thumb Code    60  tasks.o(.text)
    prvIdleTask                              0x0800dc6f   Thumb Code    32  tasks.o(.text)
    prvTaskCheckFreeStackSpace               0x0800dd71   Thumb Code    22  tasks.o(.text)
    prvListTasksWithinSingleList             0x0800de05   Thumb Code   106  tasks.o(.text)
    .text                                    0x0800ee64   Section        0  timers.o(.text)
    prvInsertTimerInActiveList               0x0800ee65   Thumb Code    80  timers.o(.text)
    prvReloadTimer                           0x0800eeb5   Thumb Code    40  timers.o(.text)
    prvProcessExpiredTimer                   0x0800eedd   Thumb Code    62  timers.o(.text)
    prvSwitchTimerLists                      0x0800ef1b   Thumb Code    58  timers.o(.text)
    prvSampleTimeNow                         0x0800ef55   Thumb Code    40  timers.o(.text)
    prvProcessReceivedCommands               0x0800ef7d   Thumb Code   280  timers.o(.text)
    prvProcessTimerOrBlockTask               0x0800f095   Thumb Code   102  timers.o(.text)
    prvGetNextExpireTime                     0x0800f0fb   Thumb Code    36  timers.o(.text)
    prvTimerTask                             0x0800f11f   Thumb Code    26  timers.o(.text)
    prvCheckForValidListAndQueue             0x0800f139   Thumb Code    72  timers.o(.text)
    prvInitialiseNewTimer                    0x0800f1c3   Thumb Code    88  timers.o(.text)
    .text                                    0x0800f4b4   Section        0  port.o(.text)
    prvTaskExitError                         0x0800f4b5   Thumb Code    60  port.o(.text)
    .text                                    0x0800f7f4   Section        0  heap_4.o(.text)
    prvInsertBlockIntoFreeList               0x0800f7f5   Thumb Code    96  heap_4.o(.text)
    prvHeapInit                              0x0800f855   Thumb Code    98  heap_4.o(.text)
    .text                                    0x0800fb34   Section        0  misc.o(.text)
    .text                                    0x0800fc14   Section        0  stm32f4xx_fsmc.o(.text)
    .text                                    0x080101dc   Section        0  stm32f4xx_gpio.o(.text)
    .text                                    0x08010470   Section        0  stm32f4xx_rcc.o(.text)
    .text                                    0x08010acc   Section        0  stm32f4xx_tim.o(.text)
    TI4_Config                               0x0801126b   Thumb Code    80  stm32f4xx_tim.o(.text)
    TI3_Config                               0x080112cd   Thumb Code    72  stm32f4xx_tim.o(.text)
    TI2_Config                               0x0801132f   Thumb Code    90  stm32f4xx_tim.o(.text)
    TI1_Config                               0x0801139b   Thumb Code    58  stm32f4xx_tim.o(.text)
    .text                                    0x08011770   Section        0  stm32f4xx_usart.o(.text)
    .text                                    0x08011bc4   Section        0  delay.o(.text)
    .text                                    0x08011cb0   Section        0  usart_1.o(.text)
    .text                                    0x08011df8   Section        0  memcpya.o(.text)
    .text                                    0x08011e1c   Section        0  memseta.o(.text)
    .text                                    0x08011e40   Section        0  strstr.o(.text)
    .text                                    0x08011e64   Section        0  strchr.o(.text)
    .text                                    0x08011e78   Section        0  strlen.o(.text)
    .text                                    0x08011e86   Section        0  strcmp.o(.text)
    .text                                    0x08011ea2   Section        0  strncat.o(.text)
    .text                                    0x08011eca   Section        0  strcpy.o(.text)
    .text                                    0x08011edc   Section        0  atoi.o(.text)
    .text                                    0x08011ef6   Section        0  dadd.o(.text)
    .text                                    0x08012044   Section        0  dmul.o(.text)
    .text                                    0x08012128   Section        0  dflti.o(.text)
    .text                                    0x0801214a   Section        0  dfltui.o(.text)
    .text                                    0x08012164   Section        0  dfixui.o(.text)
    .text                                    0x08012196   Section        0  f2d.o(.text)
    .text                                    0x080121bc   Section       48  cdcmple.o(.text)
    .text                                    0x080121ec   Section       48  cdrcmple.o(.text)
    .text                                    0x0801221c   Section        0  uidiv.o(.text)
    .text                                    0x08012248   Section        0  uldiv.o(.text)
    .text                                    0x080122aa   Section        0  llshl.o(.text)
    .text                                    0x080122c8   Section        0  llushr.o(.text)
    .text                                    0x080122e8   Section        0  llsshr.o(.text)
    .text                                    0x0801230c   Section        0  strtol.o(.text)
    .text                                    0x0801237c   Section        0  depilogue.o(.text)
    .text                                    0x0801237c   Section        0  iusefp.o(.text)
    .text                                    0x08012436   Section        0  ddiv.o(.text)
    .text                                    0x08012514   Section        0  dsqrt.o(.text)
    .text                                    0x080125b6   Section        0  dfixul.o(.text)
    .text                                    0x080125e8   Section       36  init.o(.text)
    .text                                    0x0801260c   Section        0  ctype_o.o(.text)
    .text                                    0x08012614   Section        0  _strtoul.o(.text)
    .text                                    0x080126b2   Section        0  _chval.o(.text)
    .text                                    0x080126ce   Section        0  __dczerorl2.o(.text)
    i.__0printf                              0x08012724   Section        0  printfa.o(i.__0printf)
    i.__0sprintf                             0x08012744   Section        0  printfa.o(i.__0sprintf)
    i.__0vsnprintf                           0x0801276c   Section        0  printfa.o(i.__0vsnprintf)
    i.__0vsprintf                            0x080127a0   Section        0  printfa.o(i.__0vsprintf)
    i.__aeabi_errno_addr                     0x080127c4   Section        0  errno.o(i.__aeabi_errno_addr)
    i.__hardfp_sqrt                          0x080127cc   Section        0  sqrt.o(i.__hardfp_sqrt)
    i.__scatterload_copy                     0x08012846   Section       14  handlers.o(i.__scatterload_copy)
    i.__scatterload_null                     0x08012854   Section        2  handlers.o(i.__scatterload_null)
    i.__scatterload_zeroinit                 0x08012856   Section       14  handlers.o(i.__scatterload_zeroinit)
    i.__set_errno                            0x08012864   Section        0  errno.o(i.__set_errno)
    i._fp_digits                             0x08012870   Section        0  printfa.o(i._fp_digits)
    _fp_digits                               0x08012871   Thumb Code   366  printfa.o(i._fp_digits)
    i._printf_core                           0x080129f4   Section        0  printfa.o(i._printf_core)
    _printf_core                             0x080129f5   Thumb Code  1704  printfa.o(i._printf_core)
    i._printf_post_padding                   0x080130a8   Section        0  printfa.o(i._printf_post_padding)
    _printf_post_padding                     0x080130a9   Thumb Code    36  printfa.o(i._printf_post_padding)
    i._printf_pre_padding                    0x080130cc   Section        0  printfa.o(i._printf_pre_padding)
    _printf_pre_padding                      0x080130cd   Thumb Code    46  printfa.o(i._printf_pre_padding)
    i._snputc                                0x080130fa   Section        0  printfa.o(i._snputc)
    _snputc                                  0x080130fb   Thumb Code    22  printfa.o(i._snputc)
    i._sputc                                 0x08013110   Section        0  printfa.o(i._sputc)
    _sputc                                   0x08013111   Thumb Code    10  printfa.o(i._sputc)
    i.free                                   0x0801311c   Section        0  malloc.o(i.free)
    i.malloc                                 0x0801316c   Section        0  malloc.o(i.malloc)
    .constdata                               0x080131d8   Section     6624  lcd.o(.constdata)
    .constdata                               0x08014bb8   Section       10  ft5206.o(.constdata)
    .constdata                               0x08014bc2   Section      194  gt9147.o(.constdata)
    .constdata                               0x08014c84   Section       10  ott2001a.o(.constdata)
    .constdata                               0x08014c90   Section        4  touch.o(.constdata)
    .constdata                               0x08014c94   Section       28  stm32f4xx_fsmc.o(.constdata)
    .constdata                               0x08014cb0   Section      129  ctype_o.o(.constdata)
    .constdata                               0x08014d34   Section        4  ctype_o.o(.constdata)
    table                                    0x08014d34   Data           4  ctype_o.o(.constdata)
    .conststring                             0x08014d38   Section       82  main.o(.conststring)
    .conststring                             0x08014d8c   Section      121  touch.o(.conststring)
    .data                                    0x20000000   Section      104  main.o(.data)
    .data                                    0x20000068   Section       20  system_stm32f4xx.o(.data)
    .data                                    0x2000007c   Section       15  lcd.o(.data)
    key_x                                    0x2000008a   Data           1  lcd.o(.data)
    .data                                    0x2000008b   Section        1  key.o(.data)
    key_up                                   0x2000008b   Data           1  key.o(.data)
    .data                                    0x2000008c   Section        1  ft5206.o(.data)
    t                                        0x2000008c   Data           1  ft5206.o(.data)
    .data                                    0x2000008d   Section        1  gt9147.o(.data)
    t                                        0x2000008d   Data           1  gt9147.o(.data)
    .data                                    0x2000008e   Section        1  ott2001a.o(.data)
    t                                        0x2000008e   Data           1  ott2001a.o(.data)
    .data                                    0x20000090   Section       54  touch.o(.data)
    .data                                    0x200000c6   Section       21  rc522.o(.data)
    .data                                    0x200000dc   Section        2  usart2.o(.data)
    .data                                    0x200000e0   Section        8  as608.o(.data)
    .data                                    0x200000e8   Section        4  esp8266.o(.data)
    .data                                    0x200000ec   Section        2  onenet.o(.data)
    pkt_id                                   0x200000ec   Data           2  onenet.o(.data)
    .data                                    0x200000f0   Section       64  tasks.o(.data)
    pxDelayedTaskList                        0x200000f4   Data           4  tasks.o(.data)
    pxOverflowDelayedTaskList                0x200000f8   Data           4  tasks.o(.data)
    uxDeletedTasksWaitingCleanUp             0x200000fc   Data           4  tasks.o(.data)
    uxCurrentNumberOfTasks                   0x20000100   Data           4  tasks.o(.data)
    xTickCount                               0x20000104   Data           4  tasks.o(.data)
    uxTopReadyPriority                       0x20000108   Data           4  tasks.o(.data)
    xSchedulerRunning                        0x2000010c   Data           4  tasks.o(.data)
    xPendedTicks                             0x20000110   Data           4  tasks.o(.data)
    xYieldPending                            0x20000114   Data           4  tasks.o(.data)
    xNumOfOverflows                          0x20000118   Data           4  tasks.o(.data)
    uxTaskNumber                             0x2000011c   Data           4  tasks.o(.data)
    xNextTaskUnblockTime                     0x20000120   Data           4  tasks.o(.data)
    xIdleTaskHandle                          0x20000124   Data           4  tasks.o(.data)
    uxSchedulerSuspended                     0x2000012c   Data           4  tasks.o(.data)
    .data                                    0x20000130   Section       20  timers.o(.data)
    pxCurrentTimerList                       0x20000130   Data           4  timers.o(.data)
    pxOverflowTimerList                      0x20000134   Data           4  timers.o(.data)
    xTimerQueue                              0x20000138   Data           4  timers.o(.data)
    xTimerTaskHandle                         0x2000013c   Data           4  timers.o(.data)
    xLastTime                                0x20000140   Data           4  timers.o(.data)
    .data                                    0x20000144   Section       12  port.o(.data)
    uxCriticalNesting                        0x20000144   Data           4  port.o(.data)
    ucMaxSysCallPriority                     0x20000148   Data           1  port.o(.data)
    ulMaxPRIGROUPValue                       0x2000014c   Data           4  port.o(.data)
    .data                                    0x20000150   Section       32  heap_4.o(.data)
    xStart                                   0x20000150   Data           8  heap_4.o(.data)
    pxEnd                                    0x20000158   Data           4  heap_4.o(.data)
    xFreeBytesRemaining                      0x2000015c   Data           4  heap_4.o(.data)
    xMinimumEverFreeBytesRemaining           0x20000160   Data           4  heap_4.o(.data)
    xNumberOfSuccessfulAllocations           0x20000164   Data           4  heap_4.o(.data)
    xNumberOfSuccessfulFrees                 0x20000168   Data           4  heap_4.o(.data)
    xBlockAllocatedBit                       0x2000016c   Data           4  heap_4.o(.data)
    .data                                    0x20000170   Section       16  stm32f4xx_rcc.o(.data)
    APBAHBPrescTable                         0x20000170   Data          16  stm32f4xx_rcc.o(.data)
    .data                                    0x20000180   Section        4  delay.o(.data)
    fac_us                                   0x20000180   Data           1  delay.o(.data)
    fac_ms                                   0x20000182   Data           2  delay.o(.data)
    .data                                    0x20000184   Section        6  usart_1.o(.data)
    .data                                    0x2000018c   Section        4  mvars.o(.data)
    .data                                    0x20000190   Section        4  mvars.o(.data)
    .data                                    0x20000194   Section        4  errno.o(.data)
    _errno                                   0x20000194   Data           4  errno.o(.data)
    .bss                                     0x20000198   Section     1024  main.o(.bss)
    .bss                                     0x20000598   Section       14  lcd.o(.bss)
    .bss                                     0x200005a8   Section      800  usart2.o(.bss)
    .bss                                     0x200008c8   Section       12  as608.o(.bss)
    .bss                                     0x200008d4   Section      128  esp8266.o(.bss)
    .bss                                     0x20000954   Section     2048  usart3.o(.bss)
    .bss                                     0x20001154   Section       64  queue.o(.bss)
    .bss                                     0x20001194   Section      260  tasks.o(.bss)
    pxReadyTasksLists                        0x20001194   Data         160  tasks.o(.bss)
    xDelayedTaskList1                        0x20001234   Data          20  tasks.o(.bss)
    xDelayedTaskList2                        0x20001248   Data          20  tasks.o(.bss)
    xPendingReadyList                        0x2000125c   Data          20  tasks.o(.bss)
    xTasksWaitingTermination                 0x20001270   Data          20  tasks.o(.bss)
    xSuspendedTaskList                       0x20001284   Data          20  tasks.o(.bss)
    .bss                                     0x20001298   Section       40  timers.o(.bss)
    xActiveTimerList1                        0x20001298   Data          20  timers.o(.bss)
    xActiveTimerList2                        0x200012ac   Data          20  timers.o(.bss)
    .bss                                     0x200012c0   Section    76800  heap_4.o(.bss)
    ucHeap                                   0x200012c0   Data       76800  heap_4.o(.bss)
    .bss                                     0x20013ec0   Section      200  usart_1.o(.bss)
    HEAP                                     0x20013f88   Section      512  startup_stm32f40_41xxx.o(HEAP)
    STACK                                    0x20014188   Section     1024  startup_stm32f40_41xxx.o(STACK)

    Global Symbols

    Symbol Name                              Value     Ov Type        Size  Object(Section)

    BuildAttributes$$THM_ISAv4$E$P$D$K$B$S$7EM$VFPi3$EXTD16$VFPS$VFMA$PE$A:L22UL41UL21$X:L11$S22US41US21$IEEE1$IW$USESV6$~STKCKD$USESV7$~SHL$OTIME$ROPI$IEEEX$EBA8$MICROLIB$REQ8$PRES8$EABIv2 0x00000000   Number         0  anon$$obj.o ABSOLUTE
    __ARM_use_no_argv                        0x00000000   Number         0  main.o ABSOLUTE
    __use_no_errno                           0x00000000   Number         0  useno.o ABSOLUTE
    __use_no_exception_handling              0x00000000   Number         0  useno.o ABSOLUTE
    __use_no_fp                              0x00000000   Number         0  useno.o ABSOLUTE
    __use_no_heap                            0x00000000   Number         0  useno.o ABSOLUTE
    __use_no_heap_region                     0x00000000   Number         0  useno.o ABSOLUTE
    __use_no_semihosting                     0x00000000   Number         0  useno.o ABSOLUTE
    __use_no_semihosting_swi                 0x00000000   Number         0  useno.o ABSOLUTE
    __use_no_signal_handling                 0x00000000   Number         0  useno.o ABSOLUTE
    _printf_a                                0x00000000   Number         0  stubs.o ABSOLUTE
    _printf_c                                0x00000000   Number         0  stubs.o ABSOLUTE
    _printf_charcount                        0x00000000   Number         0  stubs.o ABSOLUTE
    _printf_d                                0x00000000   Number         0  stubs.o ABSOLUTE
    _printf_e                                0x00000000   Number         0  stubs.o ABSOLUTE
    _printf_f                                0x00000000   Number         0  stubs.o ABSOLUTE
    _printf_flags                            0x00000000   Number         0  stubs.o ABSOLUTE
    _printf_fp_dec                           0x00000000   Number         0  stubs.o ABSOLUTE
    _printf_fp_hex                           0x00000000   Number         0  stubs.o ABSOLUTE
    _printf_g                                0x00000000   Number         0  stubs.o ABSOLUTE
    _printf_i                                0x00000000   Number         0  stubs.o ABSOLUTE
    _printf_int_dec                          0x00000000   Number         0  stubs.o ABSOLUTE
    _printf_l                                0x00000000   Number         0  stubs.o ABSOLUTE
    _printf_lc                               0x00000000   Number         0  stubs.o ABSOLUTE
    _printf_ll                               0x00000000   Number         0  stubs.o ABSOLUTE
    _printf_lld                              0x00000000   Number         0  stubs.o ABSOLUTE
    _printf_lli                              0x00000000   Number         0  stubs.o ABSOLUTE
    _printf_llo                              0x00000000   Number         0  stubs.o ABSOLUTE
    _printf_llu                              0x00000000   Number         0  stubs.o ABSOLUTE
    _printf_llx                              0x00000000   Number         0  stubs.o ABSOLUTE
    _printf_longlong_dec                     0x00000000   Number         0  stubs.o ABSOLUTE
    _printf_longlong_hex                     0x00000000   Number         0  stubs.o ABSOLUTE
    _printf_longlong_oct                     0x00000000   Number         0  stubs.o ABSOLUTE
    _printf_ls                               0x00000000   Number         0  stubs.o ABSOLUTE
    _printf_mbtowc                           0x00000000   Number         0  stubs.o ABSOLUTE
    _printf_n                                0x00000000   Number         0  stubs.o ABSOLUTE
    _printf_o                                0x00000000   Number         0  stubs.o ABSOLUTE
    _printf_p                                0x00000000   Number         0  stubs.o ABSOLUTE
    _printf_percent                          0x00000000   Number         0  stubs.o ABSOLUTE
    _printf_pre_padding                      0x00000000   Number         0  stubs.o ABSOLUTE
    _printf_return_value                     0x00000000   Number         0  stubs.o ABSOLUTE
    _printf_s                                0x00000000   Number         0  stubs.o ABSOLUTE
    _printf_sizespec                         0x00000000   Number         0  stubs.o ABSOLUTE
    _printf_str                              0x00000000   Number         0  stubs.o ABSOLUTE
    _printf_truncate_signed                  0x00000000   Number         0  stubs.o ABSOLUTE
    _printf_truncate_unsigned                0x00000000   Number         0  stubs.o ABSOLUTE
    _printf_u                                0x00000000   Number         0  stubs.o ABSOLUTE
    _printf_wc                               0x00000000   Number         0  stubs.o ABSOLUTE
    _printf_wctomb                           0x00000000   Number         0  stubs.o ABSOLUTE
    _printf_widthprec                        0x00000000   Number         0  stubs.o ABSOLUTE
    _printf_x                                0x00000000   Number         0  stubs.o ABSOLUTE
    __arm_fini_                               - Undefined Weak Reference
    __cpp_initialize__aeabi_                  - Undefined Weak Reference
    __cxa_finalize                            - Undefined Weak Reference
    _clock_init                               - Undefined Weak Reference
    _microlib_exit                            - Undefined Weak Reference
    __Vectors_Size                           0x00000188   Number         0  startup_stm32f40_41xxx.o ABSOLUTE
    __Vectors                                0x08000000   Data           4  startup_stm32f40_41xxx.o(RESET)
    __Vectors_End                            0x08000188   Data           0  startup_stm32f40_41xxx.o(RESET)
    __main                                   0x08000189   Thumb Code     0  entry.o(.ARM.Collect$$$$00000000)
    _main_stk                                0x08000189   Thumb Code     0  entry2.o(.ARM.Collect$$$$00000001)
    _main_scatterload                        0x0800018d   Thumb Code     0  entry5.o(.ARM.Collect$$$$00000004)
    __main_after_scatterload                 0x08000191   Thumb Code     0  entry5.o(.ARM.Collect$$$$00000004)
    _main_clock                              0x08000191   Thumb Code     0  entry7b.o(.ARM.Collect$$$$00000008)
    _main_cpp_init                           0x08000191   Thumb Code     0  entry8b.o(.ARM.Collect$$$$0000000A)
    _main_init                               0x08000191   Thumb Code     0  entry9a.o(.ARM.Collect$$$$0000000B)
    __rt_lib_shutdown_fini                   0x08000199   Thumb Code     0  entry12b.o(.ARM.Collect$$$$0000000E)
    __rt_final_cpp                           0x0800019d   Thumb Code     0  entry10a.o(.ARM.Collect$$$$0000000F)
    __rt_final_exit                          0x0800019d   Thumb Code     0  entry11a.o(.ARM.Collect$$$$00000011)
    SVC_Handler                              0x080001a1   Thumb Code    28  port.o(.emb_text)
    __asm___6_port_c_39a90d8d__prvStartFirstTask 0x080001c1   Thumb Code    36  port.o(.emb_text)
    __asm___6_port_c_39a90d8d__prvEnableVFP  0x080001e9   Thumb Code    16  port.o(.emb_text)
    PendSV_Handler                           0x080001fd   Thumb Code    88  port.o(.emb_text)
    vPortGetIPSR                             0x08000259   Thumb Code     6  port.o(.emb_text)
    OneNet_task                              0x08000261   Thumb Code    88  main.o(.text)
    AS608_task                               0x080002b9   Thumb Code   338  main.o(.text)
    RFID_task                                0x0800040b   Thumb Code   324  main.o(.text)
    LCD_task                                 0x0800054f   Thumb Code   514  main.o(.text)
    SG90_task                                0x08000751   Thumb Code    94  main.o(.text)
    start_task                               0x080007af   Thumb Code   228  main.o(.text)
    main                                     0x08000893   Thumb Code   338  main.o(.text)
    NMI_Handler                              0x08000b75   Thumb Code     2  stm32f4xx_it.o(.text)
    HardFault_Handler                        0x08000b77   Thumb Code     4  stm32f4xx_it.o(.text)
    MemManage_Handler                        0x08000b7b   Thumb Code     4  stm32f4xx_it.o(.text)
    BusFault_Handler                         0x08000b7f   Thumb Code     4  stm32f4xx_it.o(.text)
    UsageFault_Handler                       0x08000b83   Thumb Code     4  stm32f4xx_it.o(.text)
    DebugMon_Handler                         0x08000b87   Thumb Code     2  stm32f4xx_it.o(.text)
    USART3_IRQHandler                        0x08000b89   Thumb Code    62  stm32f4xx_it.o(.text)
    SystemInit                               0x08000cb1   Thumb Code    88  system_stm32f4xx.o(.text)
    SystemCoreClockUpdate                    0x08000d09   Thumb Code   174  system_stm32f4xx.o(.text)
    Reset_Handler                            0x08000de5   Thumb Code     8  startup_stm32f40_41xxx.o(.text)
    ADC_IRQHandler                           0x08000dff   Thumb Code     0  startup_stm32f40_41xxx.o(.text)
    CAN1_RX0_IRQHandler                      0x08000dff   Thumb Code     0  startup_stm32f40_41xxx.o(.text)
    CAN1_RX1_IRQHandler                      0x08000dff   Thumb Code     0  startup_stm32f40_41xxx.o(.text)
    CAN1_SCE_IRQHandler                      0x08000dff   Thumb Code     0  startup_stm32f40_41xxx.o(.text)
    CAN1_TX_IRQHandler                       0x08000dff   Thumb Code     0  startup_stm32f40_41xxx.o(.text)
    CAN2_RX0_IRQHandler                      0x08000dff   Thumb Code     0  startup_stm32f40_41xxx.o(.text)
    CAN2_RX1_IRQHandler                      0x08000dff   Thumb Code     0  startup_stm32f40_41xxx.o(.text)
    CAN2_SCE_IRQHandler                      0x08000dff   Thumb Code     0  startup_stm32f40_41xxx.o(.text)
    CAN2_TX_IRQHandler                       0x08000dff   Thumb Code     0  startup_stm32f40_41xxx.o(.text)
    CRYP_IRQHandler                          0x08000dff   Thumb Code     0  startup_stm32f40_41xxx.o(.text)
    DCMI_IRQHandler                          0x08000dff   Thumb Code     0  startup_stm32f40_41xxx.o(.text)
    DMA1_Stream0_IRQHandler                  0x08000dff   Thumb Code     0  startup_stm32f40_41xxx.o(.text)
    DMA1_Stream1_IRQHandler                  0x08000dff   Thumb Code     0  startup_stm32f40_41xxx.o(.text)
    DMA1_Stream2_IRQHandler                  0x08000dff   Thumb Code     0  startup_stm32f40_41xxx.o(.text)
    DMA1_Stream3_IRQHandler                  0x08000dff   Thumb Code     0  startup_stm32f40_41xxx.o(.text)
    DMA1_Stream4_IRQHandler                  0x08000dff   Thumb Code     0  startup_stm32f40_41xxx.o(.text)
    DMA1_Stream5_IRQHandler                  0x08000dff   Thumb Code     0  startup_stm32f40_41xxx.o(.text)
    DMA1_Stream6_IRQHandler                  0x08000dff   Thumb Code     0  startup_stm32f40_41xxx.o(.text)
    DMA1_Stream7_IRQHandler                  0x08000dff   Thumb Code     0  startup_stm32f40_41xxx.o(.text)
    DMA2_Stream0_IRQHandler                  0x08000dff   Thumb Code     0  startup_stm32f40_41xxx.o(.text)
    DMA2_Stream1_IRQHandler                  0x08000dff   Thumb Code     0  startup_stm32f40_41xxx.o(.text)
    DMA2_Stream2_IRQHandler                  0x08000dff   Thumb Code     0  startup_stm32f40_41xxx.o(.text)
    DMA2_Stream3_IRQHandler                  0x08000dff   Thumb Code     0  startup_stm32f40_41xxx.o(.text)
    DMA2_Stream4_IRQHandler                  0x08000dff   Thumb Code     0  startup_stm32f40_41xxx.o(.text)
    DMA2_Stream5_IRQHandler                  0x08000dff   Thumb Code     0  startup_stm32f40_41xxx.o(.text)
    DMA2_Stream6_IRQHandler                  0x08000dff   Thumb Code     0  startup_stm32f40_41xxx.o(.text)
    DMA2_Stream7_IRQHandler                  0x08000dff   Thumb Code     0  startup_stm32f40_41xxx.o(.text)
    ETH_IRQHandler                           0x08000dff   Thumb Code     0  startup_stm32f40_41xxx.o(.text)
    ETH_WKUP_IRQHandler                      0x08000dff   Thumb Code     0  startup_stm32f40_41xxx.o(.text)
    EXTI0_IRQHandler                         0x08000dff   Thumb Code     0  startup_stm32f40_41xxx.o(.text)
    EXTI15_10_IRQHandler                     0x08000dff   Thumb Code     0  startup_stm32f40_41xxx.o(.text)
    EXTI1_IRQHandler                         0x08000dff   Thumb Code     0  startup_stm32f40_41xxx.o(.text)
    EXTI2_IRQHandler                         0x08000dff   Thumb Code     0  startup_stm32f40_41xxx.o(.text)
    EXTI3_IRQHandler                         0x08000dff   Thumb Code     0  startup_stm32f40_41xxx.o(.text)
    EXTI4_IRQHandler                         0x08000dff   Thumb Code     0  startup_stm32f40_41xxx.o(.text)
    EXTI9_5_IRQHandler                       0x08000dff   Thumb Code     0  startup_stm32f40_41xxx.o(.text)
    FLASH_IRQHandler                         0x08000dff   Thumb Code     0  startup_stm32f40_41xxx.o(.text)
    FPU_IRQHandler                           0x08000dff   Thumb Code     0  startup_stm32f40_41xxx.o(.text)
    FSMC_IRQHandler                          0x08000dff   Thumb Code     0  startup_stm32f40_41xxx.o(.text)
    HASH_RNG_IRQHandler                      0x08000dff   Thumb Code     0  startup_stm32f40_41xxx.o(.text)
    I2C1_ER_IRQHandler                       0x08000dff   Thumb Code     0  startup_stm32f40_41xxx.o(.text)
    I2C1_EV_IRQHandler                       0x08000dff   Thumb Code     0  startup_stm32f40_41xxx.o(.text)
    I2C2_ER_IRQHandler                       0x08000dff   Thumb Code     0  startup_stm32f40_41xxx.o(.text)
    I2C2_EV_IRQHandler                       0x08000dff   Thumb Code     0  startup_stm32f40_41xxx.o(.text)
    I2C3_ER_IRQHandler                       0x08000dff   Thumb Code     0  startup_stm32f40_41xxx.o(.text)
    I2C3_EV_IRQHandler                       0x08000dff   Thumb Code     0  startup_stm32f40_41xxx.o(.text)
    OTG_FS_IRQHandler                        0x08000dff   Thumb Code     0  startup_stm32f40_41xxx.o(.text)
    OTG_FS_WKUP_IRQHandler                   0x08000dff   Thumb Code     0  startup_stm32f40_41xxx.o(.text)
    OTG_HS_EP1_IN_IRQHandler                 0x08000dff   Thumb Code     0  startup_stm32f40_41xxx.o(.text)
    OTG_HS_EP1_OUT_IRQHandler                0x08000dff   Thumb Code     0  startup_stm32f40_41xxx.o(.text)
    OTG_HS_IRQHandler                        0x08000dff   Thumb Code     0  startup_stm32f40_41xxx.o(.text)
    OTG_HS_WKUP_IRQHandler                   0x08000dff   Thumb Code     0  startup_stm32f40_41xxx.o(.text)
    PVD_IRQHandler                           0x08000dff   Thumb Code     0  startup_stm32f40_41xxx.o(.text)
    RCC_IRQHandler                           0x08000dff   Thumb Code     0  startup_stm32f40_41xxx.o(.text)
    RTC_Alarm_IRQHandler                     0x08000dff   Thumb Code     0  startup_stm32f40_41xxx.o(.text)
    RTC_WKUP_IRQHandler                      0x08000dff   Thumb Code     0  startup_stm32f40_41xxx.o(.text)
    SDIO_IRQHandler                          0x08000dff   Thumb Code     0  startup_stm32f40_41xxx.o(.text)
    SPI1_IRQHandler                          0x08000dff   Thumb Code     0  startup_stm32f40_41xxx.o(.text)
    SPI2_IRQHandler                          0x08000dff   Thumb Code     0  startup_stm32f40_41xxx.o(.text)
    SPI3_IRQHandler                          0x08000dff   Thumb Code     0  startup_stm32f40_41xxx.o(.text)
    TAMP_STAMP_IRQHandler                    0x08000dff   Thumb Code     0  startup_stm32f40_41xxx.o(.text)
    TIM1_BRK_TIM9_IRQHandler                 0x08000dff   Thumb Code     0  startup_stm32f40_41xxx.o(.text)
    TIM1_CC_IRQHandler                       0x08000dff   Thumb Code     0  startup_stm32f40_41xxx.o(.text)
    TIM1_TRG_COM_TIM11_IRQHandler            0x08000dff   Thumb Code     0  startup_stm32f40_41xxx.o(.text)
    TIM1_UP_TIM10_IRQHandler                 0x08000dff   Thumb Code     0  startup_stm32f40_41xxx.o(.text)
    TIM2_IRQHandler                          0x08000dff   Thumb Code     0  startup_stm32f40_41xxx.o(.text)
    TIM3_IRQHandler                          0x08000dff   Thumb Code     0  startup_stm32f40_41xxx.o(.text)
    TIM4_IRQHandler                          0x08000dff   Thumb Code     0  startup_stm32f40_41xxx.o(.text)
    TIM5_IRQHandler                          0x08000dff   Thumb Code     0  startup_stm32f40_41xxx.o(.text)
    TIM6_DAC_IRQHandler                      0x08000dff   Thumb Code     0  startup_stm32f40_41xxx.o(.text)
    TIM8_BRK_TIM12_IRQHandler                0x08000dff   Thumb Code     0  startup_stm32f40_41xxx.o(.text)
    TIM8_CC_IRQHandler                       0x08000dff   Thumb Code     0  startup_stm32f40_41xxx.o(.text)
    TIM8_TRG_COM_TIM14_IRQHandler            0x08000dff   Thumb Code     0  startup_stm32f40_41xxx.o(.text)
    TIM8_UP_TIM13_IRQHandler                 0x08000dff   Thumb Code     0  startup_stm32f40_41xxx.o(.text)
    UART4_IRQHandler                         0x08000dff   Thumb Code     0  startup_stm32f40_41xxx.o(.text)
    UART5_IRQHandler                         0x08000dff   Thumb Code     0  startup_stm32f40_41xxx.o(.text)
    USART6_IRQHandler                        0x08000dff   Thumb Code     0  startup_stm32f40_41xxx.o(.text)
    WWDG_IRQHandler                          0x08000dff   Thumb Code     0  startup_stm32f40_41xxx.o(.text)
    LED_Init                                 0x08000e09   Thumb Code    60  led.o(.text)
    LCD_WR_REG                               0x08000e49   Thumb Code    18  lcd.o(.text)
    LCD_WR_DATA                              0x08000e5b   Thumb Code    20  lcd.o(.text)
    LCD_RD_DATA                              0x08000e6f   Thumb Code    16  lcd.o(.text)
    LCD_WriteReg                             0x08000e7f   Thumb Code    14  lcd.o(.text)
    LCD_ReadReg                              0x08000e8d   Thumb Code    22  lcd.o(.text)
    LCD_WriteRAM_Prepare                     0x08000ea3   Thumb Code    10  lcd.o(.text)
    LCD_WriteRAM                             0x08000ead   Thumb Code     8  lcd.o(.text)
    LCD_BGR2RGB                              0x08000eb5   Thumb Code    26  lcd.o(.text)
    opt_delay                                0x08000ecf   Thumb Code    14  lcd.o(.text)
    LCD_SetCursor                            0x08000edd   Thumb Code   418  lcd.o(.text)
    LCD_ReadPoint                            0x0800107f   Thumb Code   360  lcd.o(.text)
    LCD_DisplayOn                            0x080011e7   Thumb Code   102  lcd.o(.text)
    LCD_DisplayOff                           0x0800124d   Thumb Code    90  lcd.o(.text)
    LCD_Scan_Dir                             0x080012a7   Thumb Code   744  lcd.o(.text)
    LCD_DrawPoint                            0x0800158f   Thumb Code    28  lcd.o(.text)
    LCD_Fast_DrawPoint                       0x080015ab   Thumb Code   388  lcd.o(.text)
    LCD_SSD_BackLightSet                     0x0800172f   Thumb Code    88  lcd.o(.text)
    LCD_Display_Dir                          0x08001787   Thumb Code   444  lcd.o(.text)
    LCD_Set_Window                           0x08001943   Thumb Code   546  lcd.o(.text)
    LCD_Clear                                0x08001b65   Thumb Code   100  lcd.o(.text)
    LCD_Init                                 0x08001bc9   Thumb Code 14696  lcd.o(.text)
    LCD_Fill                                 0x08005531   Thumb Code   180  lcd.o(.text)
    LCD_Color_Fill                           0x080055e5   Thumb Code   100  lcd.o(.text)
    LCD_DrawLine                             0x08005649   Thumb Code   176  lcd.o(.text)
    LCD_DrawRectangle                        0x080056f9   Thumb Code    60  lcd.o(.text)
    LCD_Draw_Circle                          0x08005735   Thumb Code   152  lcd.o(.text)
    LCD_ShowChar                             0x080057cd   Thumb Code   272  lcd.o(.text)
    LCD_Pow                                  0x080058dd   Thumb Code    22  lcd.o(.text)
    LCD_ShowNum                              0x080058f3   Thumb Code   148  lcd.o(.text)
    LCD_ShowxNum                             0x08005987   Thumb Code   220  lcd.o(.text)
    LCD_ShowString                           0x08005a63   Thumb Code   102  lcd.o(.text)
    Chinese_Show_one                         0x08005ac9   Thumb Code   174  lcd.o(.text)
    Chinese_Show_two                         0x08005b77   Thumb Code   172  lcd.o(.text)
    Show_Str                                 0x08005c23   Thumb Code   158  lcd.o(.text)
    Show_Str_Mid                             0x08005cc1   Thumb Code   106  lcd.o(.text)
    AS608_load_keyboard                      0x08005d2b   Thumb Code   346  lcd.o(.text)
    AS608_key_staset                         0x08005e85   Thumb Code   306  lcd.o(.text)
    AS608_get_keynum                         0x08005fb7   Thumb Code   244  lcd.o(.text)
    GET_NUM                                  0x080060ab   Thumb Code   440  lcd.o(.text)
    KEY_Init                                 0x080062ad   Thumb Code    60  key.o(.text)
    KEY_Scan                                 0x080062e9   Thumb Code   188  key.o(.text)
    IIC_Init                                 0x080063b1   Thumb Code    62  myiic.o(.text)
    IIC_Start                                0x080063ef   Thumb Code    68  myiic.o(.text)
    IIC_Stop                                 0x08006433   Thumb Code    62  myiic.o(.text)
    IIC_Wait_Ack                             0x08006471   Thumb Code    82  myiic.o(.text)
    IIC_Ack                                  0x080064c3   Thumb Code    66  myiic.o(.text)
    IIC_NAck                                 0x08006505   Thumb Code    66  myiic.o(.text)
    IIC_Send_Byte                            0x08006547   Thumb Code    90  myiic.o(.text)
    IIC_Read_Byte                            0x080065a1   Thumb Code    94  myiic.o(.text)
    AT24CXX_Init                             0x0800660d   Thumb Code     8  24cxx.o(.text)
    AT24CXX_ReadOneByte                      0x08006615   Thumb Code    88  24cxx.o(.text)
    AT24CXX_WriteOneByte                     0x0800666d   Thumb Code    80  24cxx.o(.text)
    AT24CXX_WriteLenByte                     0x080066bd   Thumb Code    42  24cxx.o(.text)
    AT24CXX_ReadLenByte                      0x080066e7   Thumb Code    44  24cxx.o(.text)
    AT24CXX_Check                            0x08006713   Thumb Code    46  24cxx.o(.text)
    AT24CXX_Read                             0x08006741   Thumb Code    34  24cxx.o(.text)
    AT24CXX_Write                            0x08006763   Thumb Code    36  24cxx.o(.text)
    CT_Delay                                 0x08006789   Thumb Code    10  ctiic.o(.text)
    CT_IIC_Init                              0x08006793   Thumb Code    60  ctiic.o(.text)
    CT_IIC_Start                             0x080067cf   Thumb Code    62  ctiic.o(.text)
    CT_IIC_Stop                              0x0800680d   Thumb Code    56  ctiic.o(.text)
    CT_IIC_Wait_Ack                          0x08006845   Thumb Code    78  ctiic.o(.text)
    CT_IIC_Ack                               0x08006893   Thumb Code    66  ctiic.o(.text)
    CT_IIC_NAck                              0x080068d5   Thumb Code    66  ctiic.o(.text)
    CT_IIC_Send_Byte                         0x08006917   Thumb Code    82  ctiic.o(.text)
    CT_IIC_Read_Byte                         0x08006969   Thumb Code    92  ctiic.o(.text)
    FT5206_WR_Reg                            0x080069dd   Thumb Code    82  ft5206.o(.text)
    FT5206_RD_Reg                            0x08006a2f   Thumb Code    88  ft5206.o(.text)
    FT5206_Init                              0x08006a87   Thumb Code   202  ft5206.o(.text)
    FT5206_Scan                              0x08006b51   Thumb Code   400  ft5206.o(.text)
    GT9147_WR_Reg                            0x08006d09   Thumb Code    92  gt9147.o(.text)
    GT9147_Send_Cfg                          0x08006d65   Thumb Code    86  gt9147.o(.text)
    GT9147_RD_Reg                            0x08006dbb   Thumb Code    98  gt9147.o(.text)
    GT9147_Init                              0x08006e1d   Thumb Code   248  gt9147.o(.text)
    GT9147_Scan                              0x08006f15   Thumb Code   470  gt9147.o(.text)
    OTT2001A_WR_Reg                          0x08007139   Thumb Code    92  ott2001a.o(.text)
    OTT2001A_RD_Reg                          0x08007195   Thumb Code    98  ott2001a.o(.text)
    OTT2001A_SensorControl                   0x080071f7   Thumb Code    28  ott2001a.o(.text)
    OTT2001A_Init                            0x08007213   Thumb Code   142  ott2001a.o(.text)
    OTT2001A_Scan                            0x080072a1   Thumb Code   478  ott2001a.o(.text)
    TP_Write_Byte                            0x080074c1   Thumb Code    64  touch.o(.text)
    TP_Read_AD                               0x08007501   Thumb Code   132  touch.o(.text)
    TP_Read_XOY                              0x08007585   Thumb Code   120  touch.o(.text)
    TP_Read_XY                               0x080075fd   Thumb Code    38  touch.o(.text)
    TP_Read_XY2                              0x08007623   Thumb Code   192  touch.o(.text)
    TP_Drow_Touch_Point                      0x080076e3   Thumb Code   108  touch.o(.text)
    TP_Draw_Big_Point                        0x0800774f   Thumb Code    54  touch.o(.text)
    TP_Scan                                  0x08007785   Thumb Code   244  touch.o(.text)
    TP_Save_Adjdata                          0x08007879   Thumb Code   166  touch.o(.text)
    TP_Get_Adjdata                           0x0800791f   Thumb Code   160  touch.o(.text)
    TP_Adj_Info_Show                         0x080079bf   Thumb Code   374  touch.o(.text)
    TP_Adjust                                0x08007b35   Thumb Code  2290  touch.o(.text)
    TP_Init                                  0x08008427   Thumb Code   290  touch.o(.text)
    SG90_SetAngle                            0x080085a1   Thumb Code    98  sg90.o(.text)
    SG90_Init                                0x08008603   Thumb Code   160  sg90.o(.text)
    BEEP_Init                                0x080086bd   Thumb Code    60  beep.o(.text)
    SPI_RC522_SendByte                       0x080086fd   Thumb Code    80  rc522.o(.text)
    WriteRawRC                               0x0800874d   Thumb Code    42  rc522.o(.text)
    SPI_RC522_ReadByte                       0x08008777   Thumb Code    72  rc522.o(.text)
    ReadRawRC                                0x080087bf   Thumb Code    46  rc522.o(.text)
    SetBitMask                               0x080087ed   Thumb Code    26  rc522.o(.text)
    PcdAntennaOn                             0x08008807   Thumb Code    26  rc522.o(.text)
    ClearBitMask                             0x08008821   Thumb Code    26  rc522.o(.text)
    M500PcdConfigISOType                     0x0800883b   Thumb Code    84  rc522.o(.text)
    PcdReset                                 0x0800888f   Thumb Code   124  rc522.o(.text)
    SPI1_Init                                0x0800890b   Thumb Code    74  rc522.o(.text)
    RC522_Init                               0x08008955   Thumb Code    34  rc522.o(.text)
    PcdAntennaOff                            0x08008977   Thumb Code    12  rc522.o(.text)
    PcdComMF522                              0x08008983   Thumb Code   306  rc522.o(.text)
    PcdRequest                               0x08008ab5   Thumb Code    88  rc522.o(.text)
    PcdAnticoll                              0x08008b0d   Thumb Code   112  rc522.o(.text)
    CalulateCRC                              0x08008b7d   Thumb Code   108  rc522.o(.text)
    PcdSelect                                0x08008be9   Thumb Code   112  rc522.o(.text)
    PcdAuthState                             0x08008c59   Thumb Code   110  rc522.o(.text)
    PcdWrite                                 0x08008cc7   Thumb Code   156  rc522.o(.text)
    PcdRead                                  0x08008d63   Thumb Code    84  rc522.o(.text)
    PcdHalt                                  0x08008db7   Thumb Code    50  rc522.o(.text)
    IC_CMT                                   0x08008de9   Thumb Code    72  rc522.o(.text)
    ShowID                                   0x08008e31   Thumb Code   170  rc522.o(.text)
    Identify_CardID                          0x08008edb   Thumb Code   138  rc522.o(.text)
    USART2_IRQHandler                        0x08008f91   Thumb Code    96  usart2.o(.text)
    usart2_init                              0x08008ff1   Thumb Code   196  usart2.o(.text)
    u2_printf                                0x080090b5   Thumb Code    72  usart2.o(.text)
    TIM7_IRQHandler                          0x08009115   Thumb Code    42  timer.o(.text)
    TIM7_Int_Init                            0x0800913f   Thumb Code    80  timer.o(.text)
    EnsureMessage                            0x08009199   Thumb Code   140  as608.o(.text)
    PS_ReadSysPara                           0x08009331   Thumb Code   168  as608.o(.text)
    PS_ValidTempleteNum                      0x080093d9   Thumb Code   704  as608.o(.text)
    PS_HandShake                             0x08009699   Thumb Code   118  as608.o(.text)
    AS608_Init                               0x0800970f   Thumb Code    76  as608.o(.text)
    PS_HighSpeedSearch                       0x0800975b   Thumb Code   144  as608.o(.text)
    PS_GenChar                               0x080097eb   Thumb Code    70  as608.o(.text)
    PS_GetImage                              0x08009831   Thumb Code    58  as608.o(.text)
    press_FR                                 0x0800986b   Thumb Code    82  as608.o(.text)
    PS_StaGPIO_Init                          0x080098bd   Thumb Code    42  as608.o(.text)
    PS_Match                                 0x080098e7   Thumb Code    58  as608.o(.text)
    PS_Search                                0x08009921   Thumb Code   144  as608.o(.text)
    PS_RegModel                              0x080099b1   Thumb Code    58  as608.o(.text)
    PS_StoreChar                             0x080099eb   Thumb Code    96  as608.o(.text)
    PS_DeletChar                             0x08009a4b   Thumb Code   266  as608.o(.text)
    PS_Empty                                 0x08009b55   Thumb Code    58  as608.o(.text)
    PS_WriteReg                              0x08009b8f   Thumb Code   110  as608.o(.text)
    PS_SetAddr                               0x08009bfd   Thumb Code   148  as608.o(.text)
    PS_WriteNotepad                          0x08009c91   Thumb Code   106  as608.o(.text)
    PS_ReadNotepad                           0x08009cfb   Thumb Code    96  as608.o(.text)
    ESP8266_Clear                            0x08009d89   Thumb Code    18  esp8266.o(.text)
    ESP8266_WaitRecive                       0x08009d9b   Thumb Code    42  esp8266.o(.text)
    ESP8266_SendCmd                          0x08009dc5   Thumb Code    76  esp8266.o(.text)
    ESP8266_SendData                         0x08009e11   Thumb Code    46  esp8266.o(.text)
    ESP8266_GetIPD                           0x08009e3f   Thumb Code    68  esp8266.o(.text)
    ESP8266_Init                             0x08009e83   Thumb Code   192  esp8266.o(.text)
    USART3_Init                              0x0800a079   Thumb Code   168  usart3.o(.text)
    USART3_Printf                            0x0800a121   Thumb Code    84  usart3.o(.text)
    USART3_TxData                            0x0800a175   Thumb Code    58  usart3.o(.text)
    Usart_SendString                         0x0800a1af   Thumb Code    50  usart3.o(.text)
    Usart_Printf                             0x0800a1e1   Thumb Code    70  usart3.o(.text)
    MQTT_NewBuffer                           0x0800a235   Thumb Code    88  mqttkit.o(.text)
    MQTT_DeleteBuffer                        0x0800a28d   Thumb Code    28  mqttkit.o(.text)
    MQTT_DumpLength                          0x0800a2a9   Thumb Code    46  mqttkit.o(.text)
    MQTT_ReadLength                          0x0800a2d7   Thumb Code    70  mqttkit.o(.text)
    MQTT_UnPacketRecv                        0x0800a31d   Thumb Code   106  mqttkit.o(.text)
    MQTT_PacketConnect                       0x0800a387   Thumb Code   666  mqttkit.o(.text)
    MQTT_PacketDisConnect                    0x0800a621   Thumb Code    48  mqttkit.o(.text)
    MQTT_UnPacketConnectAck                  0x0800a651   Thumb Code    30  mqttkit.o(.text)
    MQTT_PacketPublish                       0x0800a66f   Thumb Code   452  mqttkit.o(.text)
    MQTT_PacketSaveData                      0x0800a833   Thumb Code    88  mqttkit.o(.text)
    MQTT_PacketSaveBinData                   0x0800a88b   Thumb Code   192  mqttkit.o(.text)
    MQTT_UnPacketCmd                         0x0800a94b   Thumb Code   140  mqttkit.o(.text)
    MQTT_PacketCmdResp                       0x0800a9d7   Thumb Code   132  mqttkit.o(.text)
    MQTT_PacketSubscribe                     0x0800aa5b   Thumb Code   254  mqttkit.o(.text)
    MQTT_UnPacketSubscribe                   0x0800ab59   Thumb Code    52  mqttkit.o(.text)
    MQTT_PacketUnSubscribe                   0x0800ab8d   Thumb Code   268  mqttkit.o(.text)
    MQTT_UnPacketUnSubscribe                 0x0800ac99   Thumb Code    18  mqttkit.o(.text)
    MQTT_UnPacketPublish                     0x0800acab   Thumb Code   440  mqttkit.o(.text)
    MQTT_PacketPublishAck                    0x0800ae63   Thumb Code    72  mqttkit.o(.text)
    MQTT_UnPacketPublishAck                  0x0800aeab   Thumb Code    30  mqttkit.o(.text)
    MQTT_PacketPublishRec                    0x0800aec9   Thumb Code    72  mqttkit.o(.text)
    MQTT_UnPacketPublishRec                  0x0800af11   Thumb Code    30  mqttkit.o(.text)
    MQTT_PacketPublishRel                    0x0800af2f   Thumb Code    72  mqttkit.o(.text)
    MQTT_UnPacketPublishRel                  0x0800af77   Thumb Code    36  mqttkit.o(.text)
    MQTT_PacketPublishComp                   0x0800af9b   Thumb Code    72  mqttkit.o(.text)
    MQTT_UnPacketPublishComp                 0x0800afe3   Thumb Code    30  mqttkit.o(.text)
    MQTT_PacketPing                          0x0800b001   Thumb Code    48  mqttkit.o(.text)
    OneNet_DevLink                           0x0800b031   Thumb Code   212  onenet.o(.text)
    OneNet_FillBuf                           0x0800b105   Thumb Code    34  onenet.o(.text)
    OneNet_SendData                          0x0800b127   Thumb Code   128  onenet.o(.text)
    OneNet_Subscribe                         0x0800b1a7   Thumb Code    80  onenet.o(.text)
    OneNet_Publish                           0x0800b1f7   Thumb Code    94  onenet.o(.text)
    OneNet_HandleData                        0x0800b255   Thumb Code    80  onenet.o(.text)
    OneNet_RevPro                            0x0800b2a5   Thumb Code  1288  onenet.o(.text)
    xEventGroupCreate                        0x0800b8dd   Thumb Code    26  event_groups.o(.text)
    xEventGroupSetBits                       0x0800b8f7   Thumb Code   206  event_groups.o(.text)
    xEventGroupSync                          0x0800b9c5   Thumb Code   268  event_groups.o(.text)
    xEventGroupWaitBits                      0x0800baef   Thumb Code   338  event_groups.o(.text)
    xEventGroupClearBits                     0x0800bc41   Thumb Code    92  event_groups.o(.text)
    xEventGroupGetBitsFromISR                0x0800bc9d   Thumb Code    44  event_groups.o(.text)
    vEventGroupDelete                        0x0800bcc9   Thumb Code   106  event_groups.o(.text)
    vEventGroupSetBitsCallback               0x0800bd33   Thumb Code    16  event_groups.o(.text)
    vEventGroupClearBitsCallback             0x0800bd43   Thumb Code    16  event_groups.o(.text)
    uxEventGroupGetNumber                    0x0800bd53   Thumb Code    14  event_groups.o(.text)
    vEventGroupSetNumber                     0x0800bd61   Thumb Code     4  event_groups.o(.text)
    vListInitialise                          0x0800bd69   Thumb Code    26  list.o(.text)
    vListInitialiseItem                      0x0800bd83   Thumb Code     6  list.o(.text)
    vListInsertEnd                           0x0800bd89   Thumb Code    24  list.o(.text)
    vListInsert                              0x0800bda1   Thumb Code    52  list.o(.text)
    uxListRemove                             0x0800bdd5   Thumb Code    40  list.o(.text)
    xQueueGenericReset                       0x0800bdfd   Thumb Code   214  queue.o(.text)
    xQueueGenericCreate                      0x0800befd   Thumb Code   102  queue.o(.text)
    xQueueGenericSend                        0x0800c07d   Thumb Code   420  queue.o(.text)
    xQueueCreateMutex                        0x0800c23f   Thumb Code    38  queue.o(.text)
    xQueueGiveMutexRecursive                 0x0800c265   Thumb Code    72  queue.o(.text)
    xQueueSemaphoreTake                      0x0800c2db   Thumb Code   434  queue.o(.text)
    xQueueTakeMutexRecursive                 0x0800c48d   Thumb Code    78  queue.o(.text)
    xQueueCreateCountingSemaphore            0x0800c4db   Thumb Code    60  queue.o(.text)
    xQueueGenericSendFromISR                 0x0800c517   Thumb Code   288  queue.o(.text)
    xQueueGiveFromISR                        0x0800c637   Thumb Code   260  queue.o(.text)
    xQueueReceive                            0x0800c769   Thumb Code   356  queue.o(.text)
    xQueuePeek                               0x0800c8cd   Thumb Code   362  queue.o(.text)
    xQueueReceiveFromISR                     0x0800ca37   Thumb Code   238  queue.o(.text)
    xQueuePeekFromISR                        0x0800cb25   Thumb Code   176  queue.o(.text)
    uxQueueMessagesWaiting                   0x0800cbd5   Thumb Code    46  queue.o(.text)
    uxQueueSpacesAvailable                   0x0800cc03   Thumb Code    48  queue.o(.text)
    uxQueueMessagesWaitingFromISR            0x0800cc33   Thumb Code    34  queue.o(.text)
    vQueueUnregisterQueue                    0x0800cc55   Thumb Code    68  queue.o(.text)
    vQueueDelete                             0x0800cc99   Thumb Code    44  queue.o(.text)
    uxQueueGetQueueNumber                    0x0800ccc5   Thumb Code     6  queue.o(.text)
    vQueueSetQueueNumber                     0x0800cccb   Thumb Code     4  queue.o(.text)
    ucQueueGetQueueType                      0x0800cccf   Thumb Code     8  queue.o(.text)
    xQueueIsQueueEmptyFromISR                0x0800ccd7   Thumb Code    42  queue.o(.text)
    xQueueIsQueueFullFromISR                 0x0800cd01   Thumb Code    46  queue.o(.text)
    vQueueAddToRegistry                      0x0800cd2f   Thumb Code    90  queue.o(.text)
    pcQueueGetName                           0x0800cd89   Thumb Code    64  queue.o(.text)
    vQueueWaitForMessageRestricted           0x0800cdc9   Thumb Code    74  queue.o(.text)
    xTaskCreate                              0x0800d00d   Thumb Code    96  tasks.o(.text)
    vTaskDelete                              0x0800d0a7   Thumb Code   202  tasks.o(.text)
    xTaskIncrementTick                       0x0800d171   Thumb Code   476  tasks.o(.text)
    xTaskResumeAll                           0x0800d34d   Thumb Code   338  tasks.o(.text)
    vTaskSuspendAll                          0x0800d543   Thumb Code    12  tasks.o(.text)
    xTaskDelayUntil                          0x0800d54f   Thumb Code   202  tasks.o(.text)
    vTaskDelay                               0x0800d619   Thumb Code    82  tasks.o(.text)
    eTaskGetState                            0x0800d66b   Thumb Code   200  tasks.o(.text)
    uxTaskPriorityGet                        0x0800d733   Thumb Code    30  tasks.o(.text)
    uxTaskPriorityGetFromISR                 0x0800d751   Thumb Code    62  tasks.o(.text)
    vTaskPrioritySet                         0x0800d78f   Thumb Code   312  tasks.o(.text)
    vTaskSwitchContext                       0x0800d8c7   Thumb Code   118  tasks.o(.text)
    vTaskSuspend                             0x0800d93d   Thumb Code   224  tasks.o(.text)
    vTaskResume                              0x0800da6d   Thumb Code   236  tasks.o(.text)
    xTaskResumeFromISR                       0x0800db59   Thumb Code   218  tasks.o(.text)
    vTaskStartScheduler                      0x0800dc8f   Thumb Code   122  tasks.o(.text)
    vTaskEndScheduler                        0x0800dd09   Thumb Code    32  tasks.o(.text)
    xTaskGetTickCount                        0x0800dd29   Thumb Code     6  tasks.o(.text)
    xTaskGetTickCountFromISR                 0x0800dd2f   Thumb Code    16  tasks.o(.text)
    uxTaskGetNumberOfTasks                   0x0800dd3f   Thumb Code     6  tasks.o(.text)
    pcTaskGetName                            0x0800dd45   Thumb Code    44  tasks.o(.text)
    vTaskGetInfo                             0x0800dd87   Thumb Code   126  tasks.o(.text)
    uxTaskGetSystemState                     0x0800de6f   Thumb Code   238  tasks.o(.text)
    xTaskCatchUpTicks                        0x0800df5d   Thumb Code    64  tasks.o(.text)
    vTaskPlaceOnEventList                    0x0800df9d   Thumb Code    52  tasks.o(.text)
    vTaskPlaceOnUnorderedEventList           0x0800dfd1   Thumb Code   134  tasks.o(.text)
    vTaskPlaceOnEventListRestricted          0x0800e057   Thumb Code    94  tasks.o(.text)
    xTaskRemoveFromEventList                 0x0800e0b5   Thumb Code   264  tasks.o(.text)
    vTaskRemoveFromUnorderedEventList        0x0800e1bd   Thumb Code   250  tasks.o(.text)
    vTaskSetTimeOutState                     0x0800e2b7   Thumb Code    50  tasks.o(.text)
    vTaskInternalSetTimeOutState             0x0800e2e9   Thumb Code    14  tasks.o(.text)
    xTaskCheckForTimeOut                     0x0800e2f7   Thumb Code   174  tasks.o(.text)
    vTaskMissedYield                         0x0800e3a5   Thumb Code     8  tasks.o(.text)
    uxTaskGetTaskNumber                      0x0800e3ad   Thumb Code    14  tasks.o(.text)
    vTaskSetTaskNumber                       0x0800e3bb   Thumb Code     8  tasks.o(.text)
    xTaskGetCurrentTaskHandle                0x0800e3c3   Thumb Code     6  tasks.o(.text)
    xTaskGetSchedulerState                   0x0800e3c9   Thumb Code    24  tasks.o(.text)
    xTaskPriorityInherit                     0x0800e3e1   Thumb Code   224  tasks.o(.text)
    xTaskPriorityDisinherit                  0x0800e4c1   Thumb Code   226  tasks.o(.text)
    vTaskPriorityDisinheritAfterTimeout      0x0800e5a3   Thumb Code   268  tasks.o(.text)
    uxTaskResetEventItemValue                0x0800e6af   Thumb Code    24  tasks.o(.text)
    pvTaskIncrementMutexHeldCount            0x0800e6c7   Thumb Code    26  tasks.o(.text)
    ulTaskGenericNotifyTake                  0x0800e6e1   Thumb Code   192  tasks.o(.text)
    xTaskGenericNotifyWait                   0x0800e7a1   Thumb Code   196  tasks.o(.text)
    xTaskGenericNotify                       0x0800e865   Thumb Code   442  tasks.o(.text)
    xTaskGenericNotifyFromISR                0x0800ea1f   Thumb Code   550  tasks.o(.text)
    vTaskGenericNotifyGiveFromISR            0x0800ec45   Thumb Code   372  tasks.o(.text)
    xTaskGenericNotifyStateClear             0x0800edb9   Thumb Code    90  tasks.o(.text)
    ulTaskGenericNotifyValueClear            0x0800ee13   Thumb Code    58  tasks.o(.text)
    xTimerCreateTimerTask                    0x0800f181   Thumb Code    66  timers.o(.text)
    xTimerCreate                             0x0800f21b   Thumb Code    54  timers.o(.text)
    xTimerGenericCommand                     0x0800f251   Thumb Code   178  timers.o(.text)
    xTimerGetTimerDaemonTaskHandle           0x0800f303   Thumb Code    42  timers.o(.text)
    xTimerGetPeriod                          0x0800f32d   Thumb Code    32  timers.o(.text)
    vTimerSetReloadMode                      0x0800f34d   Thumb Code    70  timers.o(.text)
    uxTimerGetReloadMode                     0x0800f393   Thumb Code    58  timers.o(.text)
    xTimerGetExpiryTime                      0x0800f3cd   Thumb Code    34  timers.o(.text)
    pcTimerGetName                           0x0800f3ef   Thumb Code    32  timers.o(.text)
    xTimerIsTimerActive                      0x0800f40f   Thumb Code    58  timers.o(.text)
    pvTimerGetTimerID                        0x0800f449   Thumb Code    44  timers.o(.text)
    vTimerSetTimerID                         0x0800f475   Thumb Code    44  timers.o(.text)
    uxTimerGetTimerNumber                    0x0800f4a1   Thumb Code     6  timers.o(.text)
    vTimerSetTimerNumber                     0x0800f4a7   Thumb Code     4  timers.o(.text)
    pxPortInitialiseStack                    0x0800f4f1   Thumb Code    38  port.o(.text)
    vPortSetupTimerInterrupt                 0x0800f517   Thumb Code    36  port.o(.text)
    xPortStartScheduler                      0x0800f53b   Thumb Code   330  port.o(.text)
    vPortEndScheduler                        0x0800f685   Thumb Code    42  port.o(.text)
    vPortEnterCritical                       0x0800f6af   Thumb Code    78  port.o(.text)
    vPortExitCritical                        0x0800f6fd   Thumb Code    56  port.o(.text)
    xPortSysTickHandler                      0x0800f735   Thumb Code    48  port.o(.text)
    vPortValidateInterruptPriority           0x0800f765   Thumb Code   108  port.o(.text)
    pvPortMalloc                             0x0800f8b7   Thumb Code   338  heap_4.o(.text)
    vPortFree                                0x0800fa09   Thumb Code   150  heap_4.o(.text)
    xPortGetFreeHeapSize                     0x0800fa9f   Thumb Code     6  heap_4.o(.text)
    xPortGetMinimumEverFreeHeapSize          0x0800faa5   Thumb Code     6  heap_4.o(.text)
    vPortInitialiseBlocks                    0x0800faab   Thumb Code     2  heap_4.o(.text)
    vPortGetHeapStats                        0x0800faad   Thumb Code   104  heap_4.o(.text)
    NVIC_PriorityGroupConfig                 0x0800fb35   Thumb Code    10  misc.o(.text)
    NVIC_Init                                0x0800fb3f   Thumb Code   106  misc.o(.text)
    NVIC_SetVectorTable                      0x0800fba9   Thumb Code    14  misc.o(.text)
    NVIC_SystemLPConfig                      0x0800fbb7   Thumb Code    34  misc.o(.text)
    SysTick_CLKSourceConfig                  0x0800fbd9   Thumb Code    40  misc.o(.text)
    FSMC_NORSRAMDeInit                       0x0800fc15   Thumb Code    54  stm32f4xx_fsmc.o(.text)
    FSMC_NORSRAMInit                         0x0800fc4b   Thumb Code   230  stm32f4xx_fsmc.o(.text)
    FSMC_NORSRAMStructInit                   0x0800fd31   Thumb Code    48  stm32f4xx_fsmc.o(.text)
    FSMC_NORSRAMCmd                          0x0800fd61   Thumb Code    46  stm32f4xx_fsmc.o(.text)
    FSMC_NANDDeInit                          0x0800fd8f   Thumb Code    62  stm32f4xx_fsmc.o(.text)
    FSMC_NANDInit                            0x0800fdcd   Thumb Code   132  stm32f4xx_fsmc.o(.text)
    FSMC_NANDStructInit                      0x0800fe51   Thumb Code    54  stm32f4xx_fsmc.o(.text)
    FSMC_NANDCmd                             0x0800fe87   Thumb Code    86  stm32f4xx_fsmc.o(.text)
    FSMC_NANDECCCmd                          0x0800fedd   Thumb Code    86  stm32f4xx_fsmc.o(.text)
    FSMC_GetECC                              0x0800ff33   Thumb Code    24  stm32f4xx_fsmc.o(.text)
    FSMC_PCCARDDeInit                        0x0800ff4b   Thumb Code    36  stm32f4xx_fsmc.o(.text)
    FSMC_PCCARDInit                          0x0800ff6f   Thumb Code   130  stm32f4xx_fsmc.o(.text)
    FSMC_PCCARDStructInit                    0x0800fff1   Thumb Code    60  stm32f4xx_fsmc.o(.text)
    FSMC_PCCARDCmd                           0x0801002d   Thumb Code    44  stm32f4xx_fsmc.o(.text)
    FSMC_ITConfig                            0x08010059   Thumb Code   128  stm32f4xx_fsmc.o(.text)
    FSMC_GetFlagStatus                       0x080100d9   Thumb Code    54  stm32f4xx_fsmc.o(.text)
    FSMC_ClearFlag                           0x0801010f   Thumb Code    74  stm32f4xx_fsmc.o(.text)
    FSMC_GetITStatus                         0x08010159   Thumb Code    62  stm32f4xx_fsmc.o(.text)
    FSMC_ClearITPendingBit                   0x08010197   Thumb Code    66  stm32f4xx_fsmc.o(.text)
    GPIO_DeInit                              0x080101dd   Thumb Code   268  stm32f4xx_gpio.o(.text)
    GPIO_Init                                0x080102e9   Thumb Code   144  stm32f4xx_gpio.o(.text)
    GPIO_StructInit                          0x08010379   Thumb Code    18  stm32f4xx_gpio.o(.text)
    GPIO_PinLockConfig                       0x0801038b   Thumb Code    34  stm32f4xx_gpio.o(.text)
    GPIO_ReadInputDataBit                    0x080103ad   Thumb Code    18  stm32f4xx_gpio.o(.text)
    GPIO_ReadInputData                       0x080103bf   Thumb Code     8  stm32f4xx_gpio.o(.text)
    GPIO_ReadOutputDataBit                   0x080103c7   Thumb Code    18  stm32f4xx_gpio.o(.text)
    GPIO_ReadOutputData                      0x080103d9   Thumb Code     8  stm32f4xx_gpio.o(.text)
    GPIO_SetBits                             0x080103e1   Thumb Code     4  stm32f4xx_gpio.o(.text)
    GPIO_ResetBits                           0x080103e5   Thumb Code     4  stm32f4xx_gpio.o(.text)
    GPIO_WriteBit                            0x080103e9   Thumb Code    10  stm32f4xx_gpio.o(.text)
    GPIO_Write                               0x080103f3   Thumb Code     4  stm32f4xx_gpio.o(.text)
    GPIO_ToggleBits                          0x080103f7   Thumb Code     8  stm32f4xx_gpio.o(.text)
    GPIO_PinAFConfig                         0x080103ff   Thumb Code    70  stm32f4xx_gpio.o(.text)
    RCC_DeInit                               0x08010471   Thumb Code    82  stm32f4xx_rcc.o(.text)
    RCC_HSEConfig                            0x080104c3   Thumb Code    14  stm32f4xx_rcc.o(.text)
    RCC_GetFlagStatus                        0x080104d1   Thumb Code    60  stm32f4xx_rcc.o(.text)
    RCC_WaitForHSEStartUp                    0x0801050d   Thumb Code    56  stm32f4xx_rcc.o(.text)
    RCC_AdjustHSICalibrationValue            0x08010545   Thumb Code    20  stm32f4xx_rcc.o(.text)
    RCC_HSICmd                               0x08010559   Thumb Code     6  stm32f4xx_rcc.o(.text)
    RCC_LSEConfig                            0x0801055f   Thumb Code    46  stm32f4xx_rcc.o(.text)
    RCC_LSICmd                               0x0801058d   Thumb Code     6  stm32f4xx_rcc.o(.text)
    RCC_PLLConfig                            0x08010593   Thumb Code    32  stm32f4xx_rcc.o(.text)
    RCC_PLLCmd                               0x080105b3   Thumb Code     6  stm32f4xx_rcc.o(.text)
    RCC_PLLI2SConfig                         0x080105b9   Thumb Code    14  stm32f4xx_rcc.o(.text)
    RCC_PLLI2SCmd                            0x080105c7   Thumb Code     6  stm32f4xx_rcc.o(.text)
    RCC_PLLSAIConfig                         0x080105cd   Thumb Code    20  stm32f4xx_rcc.o(.text)
    RCC_PLLSAICmd                            0x080105e1   Thumb Code     6  stm32f4xx_rcc.o(.text)
    RCC_ClockSecuritySystemCmd               0x080105e7   Thumb Code     6  stm32f4xx_rcc.o(.text)
    RCC_MCO1Config                           0x080105ed   Thumb Code    28  stm32f4xx_rcc.o(.text)
    RCC_MCO2Config                           0x08010609   Thumb Code    28  stm32f4xx_rcc.o(.text)
    RCC_SYSCLKConfig                         0x08010625   Thumb Code    20  stm32f4xx_rcc.o(.text)
    RCC_GetSYSCLKSource                      0x08010639   Thumb Code    12  stm32f4xx_rcc.o(.text)
    RCC_HCLKConfig                           0x08010645   Thumb Code    20  stm32f4xx_rcc.o(.text)
    RCC_PCLK1Config                          0x08010659   Thumb Code    20  stm32f4xx_rcc.o(.text)
    RCC_PCLK2Config                          0x0801066d   Thumb Code    22  stm32f4xx_rcc.o(.text)
    RCC_GetClocksFreq                        0x08010683   Thumb Code   222  stm32f4xx_rcc.o(.text)
    RCC_RTCCLKConfig                         0x08010761   Thumb Code    54  stm32f4xx_rcc.o(.text)
    RCC_RTCCLKCmd                            0x08010797   Thumb Code     8  stm32f4xx_rcc.o(.text)
    RCC_BackupResetCmd                       0x0801079f   Thumb Code     8  stm32f4xx_rcc.o(.text)
    RCC_I2SCLKConfig                         0x080107a7   Thumb Code     6  stm32f4xx_rcc.o(.text)
    RCC_SAIPLLI2SClkDivConfig                0x080107ad   Thumb Code    26  stm32f4xx_rcc.o(.text)
    RCC_SAIPLLSAIClkDivConfig                0x080107c7   Thumb Code    28  stm32f4xx_rcc.o(.text)
    RCC_SAIBlockACLKConfig                   0x080107e3   Thumb Code    20  stm32f4xx_rcc.o(.text)
    RCC_SAIBlockBCLKConfig                   0x080107f7   Thumb Code    20  stm32f4xx_rcc.o(.text)
    RCC_LTDCCLKDivConfig                     0x0801080b   Thumb Code    20  stm32f4xx_rcc.o(.text)
    RCC_TIMCLKPresConfig                     0x0801081f   Thumb Code     6  stm32f4xx_rcc.o(.text)
    RCC_AHB1PeriphClockCmd                   0x08010825   Thumb Code    34  stm32f4xx_rcc.o(.text)
    RCC_AHB2PeriphClockCmd                   0x08010847   Thumb Code    78  stm32f4xx_rcc.o(.text)
    RCC_AHB3PeriphClockCmd                   0x08010895   Thumb Code    34  stm32f4xx_rcc.o(.text)
    RCC_APB1PeriphClockCmd                   0x080108b7   Thumb Code    34  stm32f4xx_rcc.o(.text)
    RCC_APB2PeriphClockCmd                   0x080108d9   Thumb Code    34  stm32f4xx_rcc.o(.text)
    RCC_AHB1PeriphResetCmd                   0x080108fb   Thumb Code    34  stm32f4xx_rcc.o(.text)
    RCC_AHB2PeriphResetCmd                   0x0801091d   Thumb Code    34  stm32f4xx_rcc.o(.text)
    RCC_AHB3PeriphResetCmd                   0x0801093f   Thumb Code    34  stm32f4xx_rcc.o(.text)
    RCC_APB1PeriphResetCmd                   0x08010961   Thumb Code    34  stm32f4xx_rcc.o(.text)
    RCC_APB2PeriphResetCmd                   0x08010983   Thumb Code    34  stm32f4xx_rcc.o(.text)
    RCC_AHB1PeriphClockLPModeCmd             0x080109a5   Thumb Code    34  stm32f4xx_rcc.o(.text)
    RCC_AHB2PeriphClockLPModeCmd             0x080109c7   Thumb Code    34  stm32f4xx_rcc.o(.text)
    RCC_AHB3PeriphClockLPModeCmd             0x080109e9   Thumb Code    34  stm32f4xx_rcc.o(.text)
    RCC_APB1PeriphClockLPModeCmd             0x08010a0b   Thumb Code    34  stm32f4xx_rcc.o(.text)
    RCC_APB2PeriphClockLPModeCmd             0x08010a2d   Thumb Code    34  stm32f4xx_rcc.o(.text)
    RCC_LSEModeConfig                        0x08010a4f   Thumb Code    40  stm32f4xx_rcc.o(.text)
    RCC_ITConfig                             0x08010a77   Thumb Code    34  stm32f4xx_rcc.o(.text)
    RCC_ClearFlag                            0x08010a99   Thumb Code    18  stm32f4xx_rcc.o(.text)
    RCC_GetITStatus                          0x08010aab   Thumb Code    22  stm32f4xx_rcc.o(.text)
    RCC_ClearITPendingBit                    0x08010ac1   Thumb Code     8  stm32f4xx_rcc.o(.text)
    TIM_DeInit                               0x08010acd   Thumb Code   346  stm32f4xx_tim.o(.text)
    TIM_TimeBaseInit                         0x08010c27   Thumb Code   104  stm32f4xx_tim.o(.text)
    TIM_TimeBaseStructInit                   0x08010c8f   Thumb Code    18  stm32f4xx_tim.o(.text)
    TIM_PrescalerConfig                      0x08010ca1   Thumb Code     6  stm32f4xx_tim.o(.text)
    TIM_CounterModeConfig                    0x08010ca7   Thumb Code    18  stm32f4xx_tim.o(.text)
    TIM_SetCounter                           0x08010cb9   Thumb Code     4  stm32f4xx_tim.o(.text)
    TIM_SetAutoreload                        0x08010cbd   Thumb Code     4  stm32f4xx_tim.o(.text)
    TIM_GetCounter                           0x08010cc1   Thumb Code     6  stm32f4xx_tim.o(.text)
    TIM_GetPrescaler                         0x08010cc7   Thumb Code     6  stm32f4xx_tim.o(.text)
    TIM_UpdateDisableConfig                  0x08010ccd   Thumb Code    24  stm32f4xx_tim.o(.text)
    TIM_UpdateRequestConfig                  0x08010ce5   Thumb Code    24  stm32f4xx_tim.o(.text)
    TIM_ARRPreloadConfig                     0x08010cfd   Thumb Code    24  stm32f4xx_tim.o(.text)
    TIM_SelectOnePulseMode                   0x08010d15   Thumb Code    18  stm32f4xx_tim.o(.text)
    TIM_SetClockDivision                     0x08010d27   Thumb Code    18  stm32f4xx_tim.o(.text)
    TIM_Cmd                                  0x08010d39   Thumb Code    24  stm32f4xx_tim.o(.text)
    TIM_OC1Init                              0x08010d51   Thumb Code   114  stm32f4xx_tim.o(.text)
    TIM_OC2Init                              0x08010dc3   Thumb Code   154  stm32f4xx_tim.o(.text)
    TIM_OC3Init                              0x08010e5d   Thumb Code   204  stm32f4xx_tim.o(.text)
    TIM_OC4Init                              0x08010f29   Thumb Code   112  stm32f4xx_tim.o(.text)
    TIM_OCStructInit                         0x08010f99   Thumb Code    20  stm32f4xx_tim.o(.text)
    TIM_SelectOCxM                           0x08010fad   Thumb Code    86  stm32f4xx_tim.o(.text)
    TIM_SetCompare1                          0x08011003   Thumb Code     4  stm32f4xx_tim.o(.text)
    TIM_SetCompare2                          0x08011007   Thumb Code     4  stm32f4xx_tim.o(.text)
    TIM_SetCompare3                          0x0801100b   Thumb Code     4  stm32f4xx_tim.o(.text)
    TIM_SetCompare4                          0x0801100f   Thumb Code     4  stm32f4xx_tim.o(.text)
    TIM_ForcedOC1Config                      0x08011013   Thumb Code    18  stm32f4xx_tim.o(.text)
    TIM_ForcedOC2Config                      0x08011025   Thumb Code    26  stm32f4xx_tim.o(.text)
    TIM_ForcedOC3Config                      0x0801103f   Thumb Code    18  stm32f4xx_tim.o(.text)
    TIM_ForcedOC4Config                      0x08011051   Thumb Code    26  stm32f4xx_tim.o(.text)
    TIM_OC1PreloadConfig                     0x0801106b   Thumb Code    18  stm32f4xx_tim.o(.text)
    TIM_OC2PreloadConfig                     0x0801107d   Thumb Code    26  stm32f4xx_tim.o(.text)
    TIM_OC3PreloadConfig                     0x08011097   Thumb Code    18  stm32f4xx_tim.o(.text)
    TIM_OC4PreloadConfig                     0x080110a9   Thumb Code    26  stm32f4xx_tim.o(.text)
    TIM_OC1FastConfig                        0x080110c3   Thumb Code    18  stm32f4xx_tim.o(.text)
    TIM_OC2FastConfig                        0x080110d5   Thumb Code    26  stm32f4xx_tim.o(.text)
    TIM_OC3FastConfig                        0x080110ef   Thumb Code    18  stm32f4xx_tim.o(.text)
    TIM_OC4FastConfig                        0x08011101   Thumb Code    26  stm32f4xx_tim.o(.text)
    TIM_ClearOC1Ref                          0x0801111b   Thumb Code    18  stm32f4xx_tim.o(.text)
    TIM_ClearOC2Ref                          0x0801112d   Thumb Code    24  stm32f4xx_tim.o(.text)
    TIM_ClearOC3Ref                          0x08011145   Thumb Code    18  stm32f4xx_tim.o(.text)
    TIM_ClearOC4Ref                          0x08011157   Thumb Code    24  stm32f4xx_tim.o(.text)
    TIM_OC1PolarityConfig                    0x0801116f   Thumb Code    18  stm32f4xx_tim.o(.text)
    TIM_OC1NPolarityConfig                   0x08011181   Thumb Code    18  stm32f4xx_tim.o(.text)
    TIM_OC2PolarityConfig                    0x08011193   Thumb Code    26  stm32f4xx_tim.o(.text)
    TIM_OC2NPolarityConfig                   0x080111ad   Thumb Code    26  stm32f4xx_tim.o(.text)
    TIM_OC3PolarityConfig                    0x080111c7   Thumb Code    26  stm32f4xx_tim.o(.text)
    TIM_OC3NPolarityConfig                   0x080111e1   Thumb Code    26  stm32f4xx_tim.o(.text)
    TIM_OC4PolarityConfig                    0x080111fb   Thumb Code    26  stm32f4xx_tim.o(.text)
    TIM_CCxCmd                               0x08011215   Thumb Code    30  stm32f4xx_tim.o(.text)
    TIM_CCxNCmd                              0x08011233   Thumb Code    30  stm32f4xx_tim.o(.text)
    TIM_SetIC4Prescaler                      0x08011251   Thumb Code    26  stm32f4xx_tim.o(.text)
    TIM_SetIC3Prescaler                      0x080112bb   Thumb Code    18  stm32f4xx_tim.o(.text)
    TIM_SetIC2Prescaler                      0x08011315   Thumb Code    26  stm32f4xx_tim.o(.text)
    TIM_SetIC1Prescaler                      0x08011389   Thumb Code    18  stm32f4xx_tim.o(.text)
    TIM_ICInit                               0x080113d5   Thumb Code   110  stm32f4xx_tim.o(.text)
    TIM_ICStructInit                         0x08011443   Thumb Code    18  stm32f4xx_tim.o(.text)
    TIM_PWMIConfig                           0x08011455   Thumb Code   124  stm32f4xx_tim.o(.text)
    TIM_GetCapture1                          0x080114d1   Thumb Code     6  stm32f4xx_tim.o(.text)
    TIM_GetCapture2                          0x080114d7   Thumb Code     6  stm32f4xx_tim.o(.text)
    TIM_GetCapture3                          0x080114dd   Thumb Code     6  stm32f4xx_tim.o(.text)
    TIM_GetCapture4                          0x080114e3   Thumb Code     6  stm32f4xx_tim.o(.text)
    TIM_BDTRConfig                           0x080114e9   Thumb Code    32  stm32f4xx_tim.o(.text)
    TIM_BDTRStructInit                       0x08011509   Thumb Code    18  stm32f4xx_tim.o(.text)
    TIM_CtrlPWMOutputs                       0x0801151b   Thumb Code    30  stm32f4xx_tim.o(.text)
    TIM_SelectCOM                            0x08011539   Thumb Code    24  stm32f4xx_tim.o(.text)
    TIM_CCPreloadControl                     0x08011551   Thumb Code    24  stm32f4xx_tim.o(.text)
    TIM_ITConfig                             0x08011569   Thumb Code    18  stm32f4xx_tim.o(.text)
    TIM_GenerateEvent                        0x0801157b   Thumb Code     4  stm32f4xx_tim.o(.text)
    TIM_GetFlagStatus                        0x0801157f   Thumb Code    18  stm32f4xx_tim.o(.text)
    TIM_ClearFlag                            0x08011591   Thumb Code     6  stm32f4xx_tim.o(.text)
    TIM_GetITStatus                          0x08011597   Thumb Code    34  stm32f4xx_tim.o(.text)
    TIM_ClearITPendingBit                    0x080115b9   Thumb Code     6  stm32f4xx_tim.o(.text)
    TIM_DMAConfig                            0x080115bf   Thumb Code    10  stm32f4xx_tim.o(.text)
    TIM_DMACmd                               0x080115c9   Thumb Code    18  stm32f4xx_tim.o(.text)
    TIM_SelectCCDMA                          0x080115db   Thumb Code    24  stm32f4xx_tim.o(.text)
    TIM_InternalClockConfig                  0x080115f3   Thumb Code    12  stm32f4xx_tim.o(.text)
    TIM_SelectInputTrigger                   0x080115ff   Thumb Code    18  stm32f4xx_tim.o(.text)
    TIM_ITRxExternalClockConfig              0x08011611   Thumb Code    24  stm32f4xx_tim.o(.text)
    TIM_TIxExternalClockConfig               0x08011629   Thumb Code    62  stm32f4xx_tim.o(.text)
    TIM_ETRConfig                            0x08011667   Thumb Code    28  stm32f4xx_tim.o(.text)
    TIM_ETRClockMode1Config                  0x08011683   Thumb Code    54  stm32f4xx_tim.o(.text)
    TIM_ETRClockMode2Config                  0x080116b9   Thumb Code    32  stm32f4xx_tim.o(.text)
    TIM_SelectOutputTrigger                  0x080116d9   Thumb Code    18  stm32f4xx_tim.o(.text)
    TIM_SelectSlaveMode                      0x080116eb   Thumb Code    18  stm32f4xx_tim.o(.text)
    TIM_SelectMasterSlaveMode                0x080116fd   Thumb Code    18  stm32f4xx_tim.o(.text)
    TIM_EncoderInterfaceConfig               0x0801170f   Thumb Code    66  stm32f4xx_tim.o(.text)
    TIM_SelectHallSensor                     0x08011751   Thumb Code    24  stm32f4xx_tim.o(.text)
    TIM_RemapConfig                          0x08011769   Thumb Code     6  stm32f4xx_tim.o(.text)
    USART_DeInit                             0x08011771   Thumb Code   206  stm32f4xx_usart.o(.text)
    USART_Init                               0x0801183f   Thumb Code   204  stm32f4xx_usart.o(.text)
    USART_StructInit                         0x0801190b   Thumb Code    24  stm32f4xx_usart.o(.text)
    USART_ClockInit                          0x08011923   Thumb Code    32  stm32f4xx_usart.o(.text)
    USART_ClockStructInit                    0x08011943   Thumb Code    12  stm32f4xx_usart.o(.text)
    USART_Cmd                                0x0801194f   Thumb Code    24  stm32f4xx_usart.o(.text)
    USART_SetPrescaler                       0x08011967   Thumb Code    16  stm32f4xx_usart.o(.text)
    USART_OverSampling8Cmd                   0x08011977   Thumb Code    22  stm32f4xx_usart.o(.text)
    USART_OneBitMethodCmd                    0x0801198d   Thumb Code    24  stm32f4xx_usart.o(.text)
    USART_SendData                           0x080119a5   Thumb Code     8  stm32f4xx_usart.o(.text)
    USART_ReceiveData                        0x080119ad   Thumb Code    10  stm32f4xx_usart.o(.text)
    USART_SetAddress                         0x080119b7   Thumb Code    18  stm32f4xx_usart.o(.text)
    USART_ReceiverWakeUpCmd                  0x080119c9   Thumb Code    24  stm32f4xx_usart.o(.text)
    USART_WakeUpConfig                       0x080119e1   Thumb Code    18  stm32f4xx_usart.o(.text)
    USART_LINBreakDetectLengthConfig         0x080119f3   Thumb Code    18  stm32f4xx_usart.o(.text)
    USART_LINCmd                             0x08011a05   Thumb Code    24  stm32f4xx_usart.o(.text)
    USART_SendBreak                          0x08011a1d   Thumb Code    10  stm32f4xx_usart.o(.text)
    USART_HalfDuplexCmd                      0x08011a27   Thumb Code    24  stm32f4xx_usart.o(.text)
    USART_SetGuardTime                       0x08011a3f   Thumb Code    16  stm32f4xx_usart.o(.text)
    USART_SmartCardCmd                       0x08011a4f   Thumb Code    24  stm32f4xx_usart.o(.text)
    USART_SmartCardNACKCmd                   0x08011a67   Thumb Code    24  stm32f4xx_usart.o(.text)
    USART_IrDAConfig                         0x08011a7f   Thumb Code    18  stm32f4xx_usart.o(.text)
    USART_IrDACmd                            0x08011a91   Thumb Code    24  stm32f4xx_usart.o(.text)
    USART_DMACmd                             0x08011aa9   Thumb Code    18  stm32f4xx_usart.o(.text)
    USART_ITConfig                           0x08011abb   Thumb Code    74  stm32f4xx_usart.o(.text)
    USART_GetFlagStatus                      0x08011b05   Thumb Code    26  stm32f4xx_usart.o(.text)
    USART_ClearFlag                          0x08011b1f   Thumb Code    18  stm32f4xx_usart.o(.text)
    USART_GetITStatus                        0x08011b31   Thumb Code   118  stm32f4xx_usart.o(.text)
    USART_ClearITPendingBit                  0x08011ba7   Thumb Code    30  stm32f4xx_usart.o(.text)
    SysTick_Handler                          0x08011bc5   Thumb Code    16  delay.o(.text)
    delay_init                               0x08011bd5   Thumb Code    58  delay.o(.text)
    delay_us                                 0x08011c0f   Thumb Code    68  delay.o(.text)
    delay_ms                                 0x08011c53   Thumb Code    60  delay.o(.text)
    delay_xms                                0x08011c8f   Thumb Code    24  delay.o(.text)
    _sys_exit                                0x08011cb1   Thumb Code     4  usart_1.o(.text)
    fputc                                    0x08011cb5   Thumb Code    22  usart_1.o(.text)
    uart_init                                0x08011ccb   Thumb Code   164  usart_1.o(.text)
    USART1_IRQHandler                        0x08011d6f   Thumb Code   122  usart_1.o(.text)
    __aeabi_memcpy                           0x08011df9   Thumb Code    36  memcpya.o(.text)
    __aeabi_memcpy4                          0x08011df9   Thumb Code     0  memcpya.o(.text)
    __aeabi_memcpy8                          0x08011df9   Thumb Code     0  memcpya.o(.text)
    __aeabi_memset                           0x08011e1d   Thumb Code    14  memseta.o(.text)
    __aeabi_memset4                          0x08011e1d   Thumb Code     0  memseta.o(.text)
    __aeabi_memset8                          0x08011e1d   Thumb Code     0  memseta.o(.text)
    __aeabi_memclr                           0x08011e2b   Thumb Code     4  memseta.o(.text)
    __aeabi_memclr4                          0x08011e2b   Thumb Code     0  memseta.o(.text)
    __aeabi_memclr8                          0x08011e2b   Thumb Code     0  memseta.o(.text)
    memset                                   0x08011e2f   Thumb Code    18  memseta.o(.text)
    strstr                                   0x08011e41   Thumb Code    36  strstr.o(.text)
    strchr                                   0x08011e65   Thumb Code    20  strchr.o(.text)
    strlen                                   0x08011e79   Thumb Code    14  strlen.o(.text)
    strcmp                                   0x08011e87   Thumb Code    28  strcmp.o(.text)
    strncat                                  0x08011ea3   Thumb Code    40  strncat.o(.text)
    strcpy                                   0x08011ecb   Thumb Code    18  strcpy.o(.text)
    atoi                                     0x08011edd   Thumb Code    26  atoi.o(.text)
    __aeabi_dadd                             0x08011ef7   Thumb Code   322  dadd.o(.text)
    __aeabi_dsub                             0x08012039   Thumb Code     6  dadd.o(.text)
    __aeabi_drsub                            0x0801203f   Thumb Code     6  dadd.o(.text)
    __aeabi_dmul                             0x08012045   Thumb Code   228  dmul.o(.text)
    __aeabi_i2d                              0x08012129   Thumb Code    34  dflti.o(.text)
    __aeabi_ui2d                             0x0801214b   Thumb Code    26  dfltui.o(.text)
    __aeabi_d2uiz                            0x08012165   Thumb Code    50  dfixui.o(.text)
    __aeabi_f2d                              0x08012197   Thumb Code    38  f2d.o(.text)
    __aeabi_cdcmpeq                          0x080121bd   Thumb Code     0  cdcmple.o(.text)
    __aeabi_cdcmple                          0x080121bd   Thumb Code    48  cdcmple.o(.text)
    __aeabi_cdrcmple                         0x080121ed   Thumb Code    48  cdrcmple.o(.text)
    __aeabi_uidiv                            0x0801221d   Thumb Code     0  uidiv.o(.text)
    __aeabi_uidivmod                         0x0801221d   Thumb Code    44  uidiv.o(.text)
    __aeabi_uldivmod                         0x08012249   Thumb Code    98  uldiv.o(.text)
    __aeabi_llsl                             0x080122ab   Thumb Code    30  llshl.o(.text)
    _ll_shift_l                              0x080122ab   Thumb Code     0  llshl.o(.text)
    __aeabi_llsr                             0x080122c9   Thumb Code    32  llushr.o(.text)
    _ll_ushift_r                             0x080122c9   Thumb Code     0  llushr.o(.text)
    __aeabi_lasr                             0x080122e9   Thumb Code    36  llsshr.o(.text)
    _ll_sshift_r                             0x080122e9   Thumb Code     0  llsshr.o(.text)
    strtol                                   0x0801230d   Thumb Code   112  strtol.o(.text)
    __I$use$fp                               0x0801237d   Thumb Code     0  iusefp.o(.text)
    _double_round                            0x0801237d   Thumb Code    30  depilogue.o(.text)
    _double_epilogue                         0x0801239b   Thumb Code   156  depilogue.o(.text)
    __aeabi_ddiv                             0x08012437   Thumb Code   222  ddiv.o(.text)
    _dsqrt                                   0x08012515   Thumb Code   162  dsqrt.o(.text)
    __aeabi_d2ulz                            0x080125b7   Thumb Code    48  dfixul.o(.text)
    __scatterload                            0x080125e9   Thumb Code    28  init.o(.text)
    __scatterload_rt2                        0x080125e9   Thumb Code     0  init.o(.text)
    __rt_ctype_table                         0x0801260d   Thumb Code     4  ctype_o.o(.text)
    _strtoul                                 0x08012615   Thumb Code   158  _strtoul.o(.text)
    _chval                                   0x080126b3   Thumb Code    28  _chval.o(.text)
    __decompress                             0x080126cf   Thumb Code     0  __dczerorl2.o(.text)
    __decompress1                            0x080126cf   Thumb Code    86  __dczerorl2.o(.text)
    __0printf                                0x08012725   Thumb Code    22  printfa.o(i.__0printf)
    __1printf                                0x08012725   Thumb Code     0  printfa.o(i.__0printf)
    __2printf                                0x08012725   Thumb Code     0  printfa.o(i.__0printf)
    __c89printf                              0x08012725   Thumb Code     0  printfa.o(i.__0printf)
    printf                                   0x08012725   Thumb Code     0  printfa.o(i.__0printf)
    __0sprintf                               0x08012745   Thumb Code    34  printfa.o(i.__0sprintf)
    __1sprintf                               0x08012745   Thumb Code     0  printfa.o(i.__0sprintf)
    __2sprintf                               0x08012745   Thumb Code     0  printfa.o(i.__0sprintf)
    __c89sprintf                             0x08012745   Thumb Code     0  printfa.o(i.__0sprintf)
    sprintf                                  0x08012745   Thumb Code     0  printfa.o(i.__0sprintf)
    __0vsnprintf                             0x0801276d   Thumb Code    46  printfa.o(i.__0vsnprintf)
    __1vsnprintf                             0x0801276d   Thumb Code     0  printfa.o(i.__0vsnprintf)
    __2vsnprintf                             0x0801276d   Thumb Code     0  printfa.o(i.__0vsnprintf)
    __c89vsnprintf                           0x0801276d   Thumb Code     0  printfa.o(i.__0vsnprintf)
    vsnprintf                                0x0801276d   Thumb Code     0  printfa.o(i.__0vsnprintf)
    __0vsprintf                              0x080127a1   Thumb Code    30  printfa.o(i.__0vsprintf)
    __1vsprintf                              0x080127a1   Thumb Code     0  printfa.o(i.__0vsprintf)
    __2vsprintf                              0x080127a1   Thumb Code     0  printfa.o(i.__0vsprintf)
    __c89vsprintf                            0x080127a1   Thumb Code     0  printfa.o(i.__0vsprintf)
    vsprintf                                 0x080127a1   Thumb Code     0  printfa.o(i.__0vsprintf)
    __aeabi_errno_addr                       0x080127c5   Thumb Code     4  errno.o(i.__aeabi_errno_addr)
    __rt_errno_addr                          0x080127c5   Thumb Code     0  errno.o(i.__aeabi_errno_addr)
    __hardfp_sqrt                            0x080127cd   Thumb Code   122  sqrt.o(i.__hardfp_sqrt)
    __scatterload_copy                       0x08012847   Thumb Code    14  handlers.o(i.__scatterload_copy)
    __scatterload_null                       0x08012855   Thumb Code     2  handlers.o(i.__scatterload_null)
    __scatterload_zeroinit                   0x08012857   Thumb Code    14  handlers.o(i.__scatterload_zeroinit)
    __set_errno                              0x08012865   Thumb Code     6  errno.o(i.__set_errno)
    free                                     0x0801311d   Thumb Code    76  malloc.o(i.free)
    malloc                                   0x0801316d   Thumb Code    92  malloc.o(i.malloc)
    asc2_1206                                0x080131d8   Data        1140  lcd.o(.constdata)
    asc2_1608                                0x0801364c   Data        1520  lcd.o(.constdata)
    asc2_2412                                0x08013c3c   Data        3420  lcd.o(.constdata)
    chinese_one_1616                         0x08014998   Data         192  lcd.o(.constdata)
    chinese_two_1616                         0x08014a58   Data         352  lcd.o(.constdata)
    FT5206_TPX_TBL                           0x08014bb8   Data          10  ft5206.o(.constdata)
    GT9147_CFG_TBL                           0x08014bc2   Data         184  gt9147.o(.constdata)
    GT9147_TPX_TBL                           0x08014c7a   Data          10  gt9147.o(.constdata)
    OTT_TPX_TBL                              0x08014c84   Data          10  ott2001a.o(.constdata)
    TP_REMIND_MSG_TBL                        0x08014c90   Data           4  touch.o(.constdata)
    FSMC_DefaultTimingStruct                 0x08014c94   Data          28  stm32f4xx_fsmc.o(.constdata)
    __ctype_table                            0x08014cb0   Data         129  ctype_o.o(.constdata)
    Region$$Table$$Base                      0x08014e08   Number         0  anon$$obj.o(Region$$Table)
    Region$$Table$$Limit                     0x08014e28   Number         0  anon$$obj.o(Region$$Table)
    StartTask_Handler                        0x20000000   Data           4  main.o(.data)
    SG90Task_Handler                         0x20000004   Data           4  main.o(.data)
    LCDTask_Handler                          0x20000008   Data           4  main.o(.data)
    RFIDTask_Handler                         0x2000000c   Data           4  main.o(.data)
    AS608Task_Handler                        0x20000010   Data           4  main.o(.data)
    OneNetTask_Handler                       0x20000014   Data           4  main.o(.data)
    EventGroupHandler                        0x20000018   Data           4  main.o(.data)
    SG90_Status                              0x2000001c   Data           1  main.o(.data)
    PWD_Status                               0x2000001d   Data           1  main.o(.data)
    RFID_Status                              0x2000001e   Data           1  main.o(.data)
    AS608_Status                             0x2000001f   Data           1  main.o(.data)
    kbd_menu                                 0x20000020   Data          60  main.o(.data)
    key                                      0x2000005c   Data           1  main.o(.data)
    sg90flag                                 0x2000005d   Data           1  main.o(.data)
    rfidflag                                 0x2000005e   Data           1  main.o(.data)
    err                                      0x2000005f   Data           1  main.o(.data)
    Tips                                     0x20000060   Data           4  main.o(.data)
    topics                                   0x20000064   Data           4  main.o(.data)
    SystemCoreClock                          0x20000068   Data           4  system_stm32f4xx.o(.data)
    AHBPrescTable                            0x2000006c   Data          16  system_stm32f4xx.o(.data)
    kbd_tbl                                  0x2000007c   Data           4  lcd.o(.data)
    str                                      0x20000080   Data           4  lcd.o(.data)
    ensure                                   0x20000084   Data           1  lcd.o(.data)
    POINT_COLOR                              0x20000086   Data           2  lcd.o(.data)
    BACK_COLOR                               0x20000088   Data           2  lcd.o(.data)
    tp_dev                                   0x20000090   Data          52  touch.o(.data)
    CMD_RDX                                  0x200000c4   Data           1  touch.o(.data)
    CMD_RDY                                  0x200000c5   Data           1  touch.o(.data)
    status                                   0x200000c6   Data           1  rc522.o(.data)
    ID                                       0x200000c7   Data           4  rc522.o(.data)
    CT                                       0x200000cb   Data           2  rc522.o(.data)
    kahao1                                   0x200000cd   Data           4  rc522.o(.data)
    KEY                                      0x200000d1   Data           6  rc522.o(.data)
    cStr                                     0x200000d7   Data           4  rc522.o(.data)
    USART2_RX_STA                            0x200000dc   Data           2  usart2.o(.data)
    AS608Addr                                0x200000e0   Data           4  as608.o(.data)
    ensure1                                  0x200000e4   Data           1  as608.o(.data)
    ValidN                                   0x200000e6   Data           2  as608.o(.data)
    esp8266_cnt                              0x200000e8   Data           2  esp8266.o(.data)
    esp8266_cntPre                           0x200000ea   Data           2  esp8266.o(.data)
    pxCurrentTCB                             0x200000f0   Data           4  tasks.o(.data)
    uxTopUsedPriority                        0x20000128   Data           4  tasks.o(.data)
    __stdout                                 0x20000184   Data           4  usart_1.o(.data)
    USART_RX_STA                             0x20000188   Data           2  usart_1.o(.data)
    __microlib_freelist                      0x2000018c   Data           4  mvars.o(.data)
    __microlib_freelist_initialised          0x20000190   Data           4  mvars.o(.data)
    Pub_Buf                                  0x20000198   Data        1024  main.o(.bss)
    lcddev                                   0x20000598   Data          14  lcd.o(.bss)
    USART2_TX_BUF                            0x200005a8   Data         400  usart2.o(.bss)
    USART2_RX_BUF                            0x20000738   Data         400  usart2.o(.bss)
    AS608Para                                0x200008c8   Data          12  as608.o(.bss)
    esp8266_buf                              0x200008d4   Data         128  esp8266.o(.bss)
    USART3_TxBuff                            0x20000954   Data        1024  usart3.o(.bss)
    USART3_RxBuff                            0x20000d54   Data        1024  usart3.o(.bss)
    xQueueRegistry                           0x20001154   Data          64  queue.o(.bss)
    USART_RX_BUF                             0x20013ec0   Data         200  usart_1.o(.bss)
    __heap_base                              0x20013f88   Data           0  startup_stm32f40_41xxx.o(HEAP)
    __heap_limit                             0x20014188   Data           0  startup_stm32f40_41xxx.o(HEAP)
    __initial_sp                             0x20014588   Data           0  startup_stm32f40_41xxx.o(STACK)



==============================================================================

Memory Map of the image

  Image Entry point : 0x08000189

  Load Region LR_IROM1 (Base: 0x08000000, Size: 0x00014fc0, Max: 0x00100000, ABSOLUTE, COMPRESSED[0x00014ea8])

    Execution Region ER_IROM1 (Exec base: 0x08000000, Load base: 0x08000000, Size: 0x00014e28, Max: 0x00100000, ABSOLUTE)

    Exec Addr    Load Addr    Size         Type   Attr      Idx    E Section Name        Object

    0x08000000   0x08000000   0x00000188   Data   RO          301    RESET               startup_stm32f40_41xxx.o
    0x08000188   0x08000188   0x00000000   Code   RO         1937  * .ARM.Collect$$$$00000000  mc_w.l(entry.o)
    0x08000188   0x08000188   0x00000004   Code   RO         2292    .ARM.Collect$$$$00000001  mc_w.l(entry2.o)
    0x0800018c   0x0800018c   0x00000004   Code   RO         2295    .ARM.Collect$$$$00000004  mc_w.l(entry5.o)
    0x08000190   0x08000190   0x00000000   Code   RO         2297    .ARM.Collect$$$$00000008  mc_w.l(entry7b.o)
    0x08000190   0x08000190   0x00000000   Code   RO         2299    .ARM.Collect$$$$0000000A  mc_w.l(entry8b.o)
    0x08000190   0x08000190   0x00000008   Code   RO         2300    .ARM.Collect$$$$0000000B  mc_w.l(entry9a.o)
    0x08000198   0x08000198   0x00000004   Code   RO         2307    .ARM.Collect$$$$0000000E  mc_w.l(entry12b.o)
    0x0800019c   0x0800019c   0x00000000   Code   RO         2302    .ARM.Collect$$$$0000000F  mc_w.l(entry10a.o)
    0x0800019c   0x0800019c   0x00000000   Code   RO         2304    .ARM.Collect$$$$00000011  mc_w.l(entry11a.o)
    0x0800019c   0x0800019c   0x00000004   Code   RO         2293    .ARM.Collect$$$$00002712  mc_w.l(entry2.o)
    0x080001a0   0x080001a0   0x000000be   Code   RO         1057    .emb_text           port.o
    0x0800025e   0x0800025e   0x00000002   PAD
    0x08000260   0x08000260   0x00000914   Code   RO            3    .text               main.o
    0x08000b74   0x08000b74   0x00000060   Code   RO          243    .text               stm32f4xx_it.o
    0x08000bd4   0x08000bd4   0x00000210   Code   RO          275    .text               system_stm32f4xx.o
    0x08000de4   0x08000de4   0x00000024   Code   RO          302    .text               startup_stm32f40_41xxx.o
    0x08000e08   0x08000e08   0x00000040   Code   RO          308    .text               led.o
    0x08000e48   0x08000e48   0x00005464   Code   RO          354    .text               lcd.o
    0x080062ac   0x080062ac   0x00000104   Code   RO          403    .text               key.o
    0x080063b0   0x080063b0   0x0000025c   Code   RO          424    .text               myiic.o
    0x0800660c   0x0800660c   0x0000017a   Code   RO          447    .text               24cxx.o
    0x08006786   0x08006786   0x00000002   PAD
    0x08006788   0x08006788   0x00000254   Code   RO          470    .text               ctiic.o
    0x080069dc   0x080069dc   0x0000032c   Code   RO          493    .text               ft5206.o
    0x08006d08   0x08006d08   0x00000430   Code   RO          524    .text               gt9147.o
    0x08007138   0x08007138   0x00000388   Code   RO          555    .text               ott2001a.o
    0x080074c0   0x080074c0   0x000010e0   Code   RO          579    .text               touch.o
    0x080085a0   0x080085a0   0x0000011c   Code   RO          611    .text               sg90.o
    0x080086bc   0x080086bc   0x00000040   Code   RO          631    .text               beep.o
    0x080086fc   0x080086fc   0x00000894   Code   RO          651    .text               rc522.o
    0x08008f90   0x08008f90   0x00000184   Code   RO          674    .text               usart2.o
    0x08009114   0x08009114   0x00000084   Code   RO          711    .text               timer.o
    0x08009198   0x08009198   0x00000bf0   Code   RO          732    .text               as608.o
    0x08009d88   0x08009d88   0x000002f0   Code   RO          763    .text               esp8266.o
    0x0800a078   0x0800a078   0x000001bc   Code   RO          790    .text               usart3.o
    0x0800a234   0x0800a234   0x00000dfc   Code   RO          849    .text               mqttkit.o
    0x0800b030   0x0800b030   0x000008ac   Code   RO          879    .text               onenet.o
    0x0800b8dc   0x0800b8dc   0x0000048c   Code   RO          915    .text               event_groups.o
    0x0800bd68   0x0800bd68   0x00000094   Code   RO          948    .text               list.o
    0x0800bdfc   0x0800bdfc   0x0000101c   Code   RO          963    .text               queue.o
    0x0800ce18   0x0800ce18   0x0000204c   Code   RO         1002    .text               tasks.o
    0x0800ee64   0x0800ee64   0x00000650   Code   RO         1024    .text               timers.o
    0x0800f4b4   0x0800f4b4   0x00000340   Code   RO         1058    .text               port.o
    0x0800f7f4   0x0800f7f4   0x00000340   Code   RO         1087    .text               heap_4.o
    0x0800fb34   0x0800fb34   0x000000e0   Code   RO         1104    .text               misc.o
    0x0800fc14   0x0800fc14   0x000005c8   Code   RO         1430    .text               stm32f4xx_fsmc.o
    0x080101dc   0x080101dc   0x00000294   Code   RO         1453    .text               stm32f4xx_gpio.o
    0x08010470   0x08010470   0x0000065c   Code   RO         1616    .text               stm32f4xx_rcc.o
    0x08010acc   0x08010acc   0x00000ca2   Code   RO         1761    .text               stm32f4xx_tim.o
    0x0801176e   0x0801176e   0x00000002   PAD
    0x08011770   0x08011770   0x00000454   Code   RO         1781    .text               stm32f4xx_usart.o
    0x08011bc4   0x08011bc4   0x000000ec   Code   RO         1821    .text               delay.o
    0x08011cb0   0x08011cb0   0x00000148   Code   RO         1861    .text               usart_1.o
    0x08011df8   0x08011df8   0x00000024   Code   RO         1942    .text               mc_w.l(memcpya.o)
    0x08011e1c   0x08011e1c   0x00000024   Code   RO         1946    .text               mc_w.l(memseta.o)
    0x08011e40   0x08011e40   0x00000024   Code   RO         1948    .text               mc_w.l(strstr.o)
    0x08011e64   0x08011e64   0x00000014   Code   RO         1950    .text               mc_w.l(strchr.o)
    0x08011e78   0x08011e78   0x0000000e   Code   RO         1952    .text               mc_w.l(strlen.o)
    0x08011e86   0x08011e86   0x0000001c   Code   RO         1954    .text               mc_w.l(strcmp.o)
    0x08011ea2   0x08011ea2   0x00000028   Code   RO         1956    .text               mc_w.l(strncat.o)
    0x08011eca   0x08011eca   0x00000012   Code   RO         1958    .text               mc_w.l(strcpy.o)
    0x08011edc   0x08011edc   0x0000001a   Code   RO         2253    .text               mc_w.l(atoi.o)
    0x08011ef6   0x08011ef6   0x0000014e   Code   RO         2255    .text               mf_w.l(dadd.o)
    0x08012044   0x08012044   0x000000e4   Code   RO         2257    .text               mf_w.l(dmul.o)
    0x08012128   0x08012128   0x00000022   Code   RO         2259    .text               mf_w.l(dflti.o)
    0x0801214a   0x0801214a   0x0000001a   Code   RO         2261    .text               mf_w.l(dfltui.o)
    0x08012164   0x08012164   0x00000032   Code   RO         2265    .text               mf_w.l(dfixui.o)
    0x08012196   0x08012196   0x00000026   Code   RO         2267    .text               mf_w.l(f2d.o)
    0x080121bc   0x080121bc   0x00000030   Code   RO         2269    .text               mf_w.l(cdcmple.o)
    0x080121ec   0x080121ec   0x00000030   Code   RO         2271    .text               mf_w.l(cdrcmple.o)
    0x0801221c   0x0801221c   0x0000002c   Code   RO         2308    .text               mc_w.l(uidiv.o)
    0x08012248   0x08012248   0x00000062   Code   RO         2310    .text               mc_w.l(uldiv.o)
    0x080122aa   0x080122aa   0x0000001e   Code   RO         2312    .text               mc_w.l(llshl.o)
    0x080122c8   0x080122c8   0x00000020   Code   RO         2314    .text               mc_w.l(llushr.o)
    0x080122e8   0x080122e8   0x00000024   Code   RO         2316    .text               mc_w.l(llsshr.o)
    0x0801230c   0x0801230c   0x00000070   Code   RO         2327    .text               mc_w.l(strtol.o)
    0x0801237c   0x0801237c   0x00000000   Code   RO         2329    .text               mc_w.l(iusefp.o)
    0x0801237c   0x0801237c   0x000000ba   Code   RO         2330    .text               mf_w.l(depilogue.o)
    0x08012436   0x08012436   0x000000de   Code   RO         2332    .text               mf_w.l(ddiv.o)
    0x08012514   0x08012514   0x000000a2   Code   RO         2338    .text               mf_w.l(dsqrt.o)
    0x080125b6   0x080125b6   0x00000030   Code   RO         2340    .text               mf_w.l(dfixul.o)
    0x080125e6   0x080125e6   0x00000002   PAD
    0x080125e8   0x080125e8   0x00000024   Code   RO         2342    .text               mc_w.l(init.o)
    0x0801260c   0x0801260c   0x00000008   Code   RO         2344    .text               mc_w.l(ctype_o.o)
    0x08012614   0x08012614   0x0000009e   Code   RO         2372    .text               mc_w.l(_strtoul.o)
    0x080126b2   0x080126b2   0x0000001c   Code   RO         2374    .text               mc_w.l(_chval.o)
    0x080126ce   0x080126ce   0x00000056   Code   RO         2384    .text               mc_w.l(__dczerorl2.o)
    0x08012724   0x08012724   0x00000020   Code   RO         2197    i.__0printf         mc_w.l(printfa.o)
    0x08012744   0x08012744   0x00000028   Code   RO         2199    i.__0sprintf        mc_w.l(printfa.o)
    0x0801276c   0x0801276c   0x00000034   Code   RO         2202    i.__0vsnprintf      mc_w.l(printfa.o)
    0x080127a0   0x080127a0   0x00000024   Code   RO         2203    i.__0vsprintf       mc_w.l(printfa.o)
    0x080127c4   0x080127c4   0x00000008   Code   RO         2320    i.__aeabi_errno_addr  mc_w.l(errno.o)
    0x080127cc   0x080127cc   0x0000007a   Code   RO         1925    i.__hardfp_sqrt     m_wm.l(sqrt.o)
    0x08012846   0x08012846   0x0000000e   Code   RO         2378    i.__scatterload_copy  mc_w.l(handlers.o)
    0x08012854   0x08012854   0x00000002   Code   RO         2379    i.__scatterload_null  mc_w.l(handlers.o)
    0x08012856   0x08012856   0x0000000e   Code   RO         2380    i.__scatterload_zeroinit  mc_w.l(handlers.o)
    0x08012864   0x08012864   0x0000000c   Code   RO         2322    i.__set_errno       mc_w.l(errno.o)
    0x08012870   0x08012870   0x00000184   Code   RO         2204    i._fp_digits        mc_w.l(printfa.o)
    0x080129f4   0x080129f4   0x000006b4   Code   RO         2205    i._printf_core      mc_w.l(printfa.o)
    0x080130a8   0x080130a8   0x00000024   Code   RO         2206    i._printf_post_padding  mc_w.l(printfa.o)
    0x080130cc   0x080130cc   0x0000002e   Code   RO         2207    i._printf_pre_padding  mc_w.l(printfa.o)
    0x080130fa   0x080130fa   0x00000016   Code   RO         2208    i._snputc           mc_w.l(printfa.o)
    0x08013110   0x08013110   0x0000000a   Code   RO         2209    i._sputc            mc_w.l(printfa.o)
    0x0801311a   0x0801311a   0x00000002   PAD
    0x0801311c   0x0801311c   0x00000050   Code   RO         2225    i.free              mc_w.l(malloc.o)
    0x0801316c   0x0801316c   0x0000006c   Code   RO         2226    i.malloc            mc_w.l(malloc.o)
    0x080131d8   0x080131d8   0x000019e0   Data   RO          356    .constdata          lcd.o
    0x08014bb8   0x08014bb8   0x0000000a   Data   RO          494    .constdata          ft5206.o
    0x08014bc2   0x08014bc2   0x000000c2   Data   RO          525    .constdata          gt9147.o
    0x08014c84   0x08014c84   0x0000000a   Data   RO          556    .constdata          ott2001a.o
    0x08014c8e   0x08014c8e   0x00000002   PAD
    0x08014c90   0x08014c90   0x00000004   Data   RO          580    .constdata          touch.o
    0x08014c94   0x08014c94   0x0000001c   Data   RO         1431    .constdata          stm32f4xx_fsmc.o
    0x08014cb0   0x08014cb0   0x00000081   Data   RO         2345    .constdata          mc_w.l(ctype_o.o)
    0x08014d31   0x08014d31   0x00000003   PAD
    0x08014d34   0x08014d34   0x00000004   Data   RO         2346    .constdata          mc_w.l(ctype_o.o)
    0x08014d38   0x08014d38   0x00000052   Data   RO            5    .conststring        main.o
    0x08014d8a   0x08014d8a   0x00000002   PAD
    0x08014d8c   0x08014d8c   0x00000079   Data   RO          581    .conststring        touch.o
    0x08014e05   0x08014e05   0x00000003   PAD
    0x08014e08   0x08014e08   0x00000020   Data   RO         2376    Region$$Table       anon$$obj.o


    Execution Region RW_IRAM1 (Exec base: 0x20000000, Load base: 0x08014e28, Size: 0x00014588, Max: 0x00020000, ABSOLUTE, COMPRESSED[0x00000080])

    Exec Addr    Load Addr    Size         Type   Attr      Idx    E Section Name        Object

    0x20000000   COMPRESSED   0x00000068   Data   RW            6    .data               main.o
    0x20000068   COMPRESSED   0x00000014   Data   RW          276    .data               system_stm32f4xx.o
    0x2000007c   COMPRESSED   0x0000000f   Data   RW          357    .data               lcd.o
    0x2000008b   COMPRESSED   0x00000001   Data   RW          404    .data               key.o
    0x2000008c   COMPRESSED   0x00000001   Data   RW          495    .data               ft5206.o
    0x2000008d   COMPRESSED   0x00000001   Data   RW          526    .data               gt9147.o
    0x2000008e   COMPRESSED   0x00000001   Data   RW          557    .data               ott2001a.o
    0x2000008f   COMPRESSED   0x00000001   PAD
    0x20000090   COMPRESSED   0x00000036   Data   RW          582    .data               touch.o
    0x200000c6   COMPRESSED   0x00000015   Data   RW          652    .data               rc522.o
    0x200000db   COMPRESSED   0x00000001   PAD
    0x200000dc   COMPRESSED   0x00000002   Data   RW          676    .data               usart2.o
    0x200000de   COMPRESSED   0x00000002   PAD
    0x200000e0   COMPRESSED   0x00000008   Data   RW          734    .data               as608.o
    0x200000e8   COMPRESSED   0x00000004   Data   RW          765    .data               esp8266.o
    0x200000ec   COMPRESSED   0x00000002   Data   RW          880    .data               onenet.o
    0x200000ee   COMPRESSED   0x00000002   PAD
    0x200000f0   COMPRESSED   0x00000040   Data   RW         1004    .data               tasks.o
    0x20000130   COMPRESSED   0x00000014   Data   RW         1026    .data               timers.o
    0x20000144   COMPRESSED   0x0000000c   Data   RW         1059    .data               port.o
    0x20000150   COMPRESSED   0x00000020   Data   RW         1089    .data               heap_4.o
    0x20000170   COMPRESSED   0x00000010   Data   RW         1617    .data               stm32f4xx_rcc.o
    0x20000180   COMPRESSED   0x00000004   Data   RW         1822    .data               delay.o
    0x20000184   COMPRESSED   0x00000006   Data   RW         1863    .data               usart_1.o
    0x2000018a   COMPRESSED   0x00000002   PAD
    0x2000018c   COMPRESSED   0x00000004   Data   RW         2318    .data               mc_w.l(mvars.o)
    0x20000190   COMPRESSED   0x00000004   Data   RW         2319    .data               mc_w.l(mvars.o)
    0x20000194   COMPRESSED   0x00000004   Data   RW         2323    .data               mc_w.l(errno.o)
    0x20000198        -       0x00000400   Zero   RW            4    .bss                main.o
    0x20000598        -       0x0000000e   Zero   RW          355    .bss                lcd.o
    0x200005a6   COMPRESSED   0x00000002   PAD
    0x200005a8        -       0x00000320   Zero   RW          675    .bss                usart2.o
    0x200008c8        -       0x0000000c   Zero   RW          733    .bss                as608.o
    0x200008d4        -       0x00000080   Zero   RW          764    .bss                esp8266.o
    0x20000954        -       0x00000800   Zero   RW          791    .bss                usart3.o
    0x20001154        -       0x00000040   Zero   RW          964    .bss                queue.o
    0x20001194        -       0x00000104   Zero   RW         1003    .bss                tasks.o
    0x20001298        -       0x00000028   Zero   RW         1025    .bss                timers.o
    0x200012c0        -       0x00012c00   Zero   RW         1088    .bss                heap_4.o
    0x20013ec0        -       0x000000c8   Zero   RW         1862    .bss                usart_1.o
    0x20013f88        -       0x00000200   Zero   RW          300    HEAP                startup_stm32f40_41xxx.o
    0x20014188        -       0x00000400   Zero   RW          299    STACK               startup_stm32f40_41xxx.o


==============================================================================

Image component sizes


      Code (inc. data)   RO Data    RW Data    ZI Data      Debug   Object Name

       378          0          0          0          0       2862   24cxx.o
      3056        828          0          8         12       9171   as608.o
        64          4          0          0          0        552   beep.o
       596         24          0          0          0       2089   ctiic.o
       236         10          0          4          0       1713   delay.o
       752        310          0          4        128       3037   esp8266.o
      1164          4          0          0          0      20939   event_groups.o
       812         40         10          1          0       2615   ft5206.o
      1072         78        194          1          0       3154   gt9147.o
       832         32          0         32      76800       4290   heap_4.o
       260         12          0          1          0        900   key.o
     21604        274       6624         15         14      28601   lcd.o
        64          4          0          0          0     229743   led.o
       148          0          0          0          0       2074   list.o
      2324        642         82        104       1024     307262   main.o
       224         20          0          0          0       1861   misc.o
      3580         42          0          0          0      15495   mqttkit.o
       604         14          0          0          0       1916   myiic.o
      2220        992          0          2          0       4640   onenet.o
       904         66         10          1          0       2815   ott2001a.o
      1022         52          0         12          0       8999   port.o
      4124         18          0          0         64      22000   queue.o
      2196         48          0         21          0       8495   rc522.o
       284         26          0          0          0       1058   sg90.o
        36          8        392          0       1536        840   startup_stm32f40_41xxx.o
      1480         18         28          0          0       5714   stm32f4xx_fsmc.o
       660         44          0          0          0       4201   stm32f4xx_gpio.o
        96         14          0          0          0       1217   stm32f4xx_it.o
      1628         52          0         16          0      13100   stm32f4xx_rcc.o
      3234         60          0          0          0      23056   stm32f4xx_tim.o
      1108         34          0          0          0       7924   stm32f4xx_usart.o
       528         46          0         20          0       1843   system_stm32f4xx.o
      8268        402          0         64        260      37101   tasks.o
       132         10          0          0          0        840   timer.o
      1616         72          0         20         40      27087   timers.o
      4320        228        125         54          0       6881   touch.o
       388         24          0          2        800       2662   usart2.o
       444         14          0          0       2048       2771   usart3.o
       328         16          0          6        200       3414   usart_1.o

    ----------------------------------------------------------------------
     72792       4582       7504        396      82928     824932   Object Totals
         0          0         32          0          0          0   (incl. Generated)
         6          0          7          8          2          0   (incl. Padding)

    ----------------------------------------------------------------------

      Code (inc. data)   RO Data    RW Data    ZI Data      Debug   Library Member Name

       122          0          0          0          0        148   sqrt.o
        86          0          0          0          0          0   __dczerorl2.o
        28          0          0          0          0         68   _chval.o
       158          0          0          0          0         92   _strtoul.o
        26          0          0          0          0         80   atoi.o
         8          4        133          0          0         68   ctype_o.o
         0          0          0          0          0          0   entry.o
         0          0          0          0          0          0   entry10a.o
         0          0          0          0          0          0   entry11a.o
         4          0          0          0          0          0   entry12b.o
         8          4          0          0          0          0   entry2.o
         4          0          0          0          0          0   entry5.o
         0          0          0          0          0          0   entry7b.o
         0          0          0          0          0          0   entry8b.o
         8          4          0          0          0          0   entry9a.o
        20         10          0          4          0        136   errno.o
        30          0          0          0          0          0   handlers.o
        36          8          0          0          0         68   init.o
         0          0          0          0          0          0   iusefp.o
        30          0          0          0          0         68   llshl.o
        36          0          0          0          0         68   llsshr.o
        32          0          0          0          0         68   llushr.o
       188         20          0          0          0        160   malloc.o
        36          0          0          0          0         68   memcpya.o
        36          0          0          0          0        108   memseta.o
         0          0          0          8          0          0   mvars.o
      2378        108          0          0          0        844   printfa.o
        20          0          0          0          0         68   strchr.o
        28          0          0          0          0         76   strcmp.o
        18          0          0          0          0         68   strcpy.o
        14          0          0          0          0         68   strlen.o
        40          0          0          0          0         76   strncat.o
        36          0          0          0          0         80   strstr.o
       112          0          0          0          0         88   strtol.o
        44          0          0          0          0         80   uidiv.o
        98          0          0          0          0         92   uldiv.o
        48          0          0          0          0         68   cdcmple.o
        48          0          0          0          0         68   cdrcmple.o
       334          0          0          0          0        148   dadd.o
       222          0          0          0          0        100   ddiv.o
       186          0          0          0          0        176   depilogue.o
        50          0          0          0          0         76   dfixui.o
        48          0          0          0          0         68   dfixul.o
        34          0          0          0          0         76   dflti.o
        26          0          0          0          0         76   dfltui.o
       228          0          0          0          0         96   dmul.o
       162          0          0          0          0        100   dsqrt.o
        38          0          0          0          0         68   f2d.o

    ----------------------------------------------------------------------
      5112        158        136         12          0       3860   Library Totals
         4          0          3          0          0          0   (incl. Padding)

    ----------------------------------------------------------------------

      Code (inc. data)   RO Data    RW Data    ZI Data      Debug   Library Name

       122          0          0          0          0        148   m_wm.l
      3562        158        133         12          0       2592   mc_w.l
      1424          0          0          0          0       1120   mf_w.l

    ----------------------------------------------------------------------
      5112        158        136         12          0       3860   Library Totals

    ----------------------------------------------------------------------

==============================================================================


      Code (inc. data)   RO Data    RW Data    ZI Data      Debug   

     77904       4740       7640        408      82928     818996   Grand Totals
     77904       4740       7640        128      82928     818996   ELF Image Totals (compressed)
     77904       4740       7640        128          0          0   ROM Totals

==============================================================================

    Total RO  Size (Code + RO Data)                85544 (  83.54kB)
    Total RW  Size (RW Data + ZI Data)             83336 (  81.38kB)
    Total ROM Size (Code + RO Data + RW Data)      85672 (  83.66kB)

==============================================================================

